(dp0
S'ma'
p1
(lp2
F62.470109033102815
aF38.72963447757099
aF81.00113654091756
aF25.18895996334057
aF10.176596402637626
aF5.529557245490785
aF9.212419393139346
aF5.036932270913158
aF7.335404814053577
aF5.237541094538473
aF41.10723657161196
aF7.026620448437549
aF5.804678932167951
aF4.8890335196763255
aF275.7795284472828
aF19.858473088581945
aF14.550714326786661
aF15.514679096656144
aF13.730708664721654
aF6.6968649404582985
aF5.607557423589289
aF5.915001128553826
aF358.36854511933535
aF87.3126723394259
aF63.246264892817386
aF46.78014756209794
aF12.465111546185126
aF8.044395194807004
aF7.340396925573274
aF6.238069559691444
aF10.379319378366118
aF5.5460644067091165
aF5.611321778983141
aF5.230363967979554
aF5.742057871321497
aF108.94093323803331
aF52.12700493118813
aF31.26427001947701
aF16.895762354588555
aF17.531493431518044
aF15.44547150449674
aF14.04523956079995
aF11.564795401622284
aF11.959023658081653
aF10.945728503467928
aF9.628759865576505
aF8.284125591474714
aF9.026331003241252
aF6.668123103763598
aF7.247259389793543
aF6.778158832896155
aF7.734762454757707
aF5.184720187065908
aF5.026961857302563
aF6.394614998373871
aF6.20902044438072
aF5.805401206491012
aF11.715038883481505
aF6.43214478786729
aF10.113357228795827
aF9.157063953387038
aF8.95008223822373
aF44.76214020478805
aF9.324579749754047
aF6.857811820254747
aF140.46434042194738
aF133.29169518521462
aF40.73213513142611
aF34.679553623033236
aF36.00595995079204
aF15.473068734684455
aF12.853882507960112
aF10.693487170748767
aF11.027970533527313
aF9.988458571441898
aF9.060722980917898
aF7.181799117012968
aF5.952400174887153
aF6.657060469593967
aF6.354215017894897
aF5.8293774091302994
aF7.1590127990776375
aF9.955693000111037
aF5.716577576095988
aF6.193726066094097
aF7.246949693974407
aF6.0145777668893965
aF5.0399777189680375
aF7.511228448893488
aF6.522110216213865
aF5.450086692977738
aF5.866175617261366
aF11.168769437569846
aF8.233821278731304
aF6.497441184828468
aF6.115474478556652
aF5.119579305221906
aF15.494675871199071
aF5.607143860674001
aF21.574091667151627
aF8.934424308232026
aF8.719357267043684
aF5.1781814947414455
aF9.388775782390262
aF5.329977247096497
aF6.234140431945408
aF5.1829372079262965
aF14.62160157350347
aF10.75008501820016
aF10.200693991060264
aF5.554173817587374
aF32.963401506565084
aF26.627486667260374
aF22.83882680753441
aF6.7647926248487815
aF5.085589402508505
aF3.4340084754906486
aF6.933377559738142
aF6.3539446601054665
aF5.105553978925589
aF5.129361591100415
aF5.148791779498935
aF14.172854553122423
aF7.926833111853979
aF17.31516593304394
aF11.384347643521481
aF5.287946221502233
aF51.55539324936631
aF47.791078605124255
aF44.89940045787324
aF14.910431844614253
aF17.65001900751434
aF12.143021732133644
aF13.762367022111981
aF8.476214037174199
aF6.887862044937776
aF6.922232113812268
aF5.334850880590406
aF4.253812156039815
aF6.089586376759211
aF33.71885399836428
aF21.766844149304738
aF18.294982881262353
aF17.077723847120172
aF17.566452423188085
aF11.968378656217025
aF10.395890857232898
aF9.972916582374637
aF9.28381864314214
aF6.350144983851156
aF6.504146817927655
aF6.630411398587898
aF6.55656156385918
aF5.9328408071779535
aF5.6737361397942045
aF5.946518375763932
aF5.557280492179316
aF5.419381260024811
aF5.959443985599822
aF5.420172069082586
aF5.600519427960477
aF5.856861403199412
aF13.062952663251991
aF13.284038445311612
aF7.058019973034126
aF5.318382511049924
aF14.81275688134134
aF9.511615942642413
aF6.848666121808973
aF6.299845805775485
aF12.411478890765054
aF11.408231042483784
aF7.175768753189508
aF7.5052055240866204
aF5.978869062168187
aF5.693610132730969
aF34.69653179352349
aF5.7198883465120645
aF31.724976275699216
aF37.299121013883706
aF30.359918087515307
aF20.366543783646303
aF18.896793477900967
aF16.095191254367194
aF15.851774862244914
aF13.928425808322398
aF13.923888428886592
aF13.28046963893512
aF13.211017007252748
aF12.84981387977195
aF12.59736534157623
aF13.297579575831767
aF12.211447125121147
aF12.095396779131155
aF11.961912384880776
aF11.903496214866307
aF11.880965178028946
aF11.760067664278948
aF11.687418128360507
aF11.617795661357956
aF11.592807168095508
aF11.488988032974758
aF11.363361647084034
aF10.896632582130874
aF10.815858545046554
aF10.835887810521298
aF10.326781957790292
aF10.652858293622408
aF10.54072336949124
aF10.507089215976213
aF10.258359790568935
aF9.931881245792082
aF9.699749128427802
aF9.423659842117935
aF9.51381803801554
aF9.367945638629768
aF9.199724738159569
aF9.430216860138293
aF9.178084828594338
aF8.96225033708189
aF8.959275582774529
aF8.96581284939525
aF8.840629025272873
aF6.92543265184875
aF8.477011344489519
aF8.934449547500982
aF7.279128631847308
aF8.524317784501909
aF8.451138350420846
aF8.216045942038102
aF7.7648932776940915
aF8.12721557960736
aF8.136930685517026
aF7.786405668943566
aF7.999615594156526
aF7.715654762784357
aF7.702649784248023
aF7.502832784681204
aF7.312153066648779
aF7.075356168766675
aF7.1043317816481615
aF6.753312471984631
aF6.74305794646705
aF4.3674022279780536
aF6.8207274134026425
aF8.058825402678425
aF6.593397969242419
aF6.519286576140759
aF5.7187418215792265
aF6.060200200267168
aF6.129023954474595
aF6.018000233256905
aF6.661954435519569
aF5.889488740627887
aF5.354703889699325
aF6.666160489563304
aF5.272066663470497
aF5.630406383024397
aF5.558447912158488
aF5.942490778870634
aF5.239265575238008
aF5.082849481118103
aF4.6478115967963385
aF4.932157823827335
aF5.246153180432781
aF5.137164900975964
aF4.430973703590675
aF5.25492488191221
aF5.210413483298479
aF5.1678170059283355
aF5.153005006694044
aF4.948519695007906
aF5.802065639147925
aF6.5791445694743125
aF9.852679913883255
aF7.913529435721498
aF6.058542012853807
aF5.074271951772593
aF5.133088115241571
aF5.565605601135862
aF5.83230976407292
aF10.7214169655787
aF7.744063477420355
aF6.5459469476180745
aF6.537752117641476
aF5.562142496582847
aF12.668236548529329
aF5.830703366483707
aF5.446867241390415
aF5.554184531803212
aF5.587462062979833
aF3.48281608100632
aF5.143210485702586
aF8.224454179341803
aF8.78497799065002
aF5.806562532683591
aF4.456972089392451
aF20.74783260304195
aF12.584974581951794
aF5.959921539332983
aF5.607004948783208
aF5.194008505567388
aF5.395871925495208
aF5.803877462677062
aF6.026676331359392
aF27.062591546098272
aF19.526598505049268
aF13.136113115587705
aF7.243986680252755
aF6.156362778030813
aF6.827348466582676
aF6.116800254638572
aF5.213630027056519
aF4.575420118920066
aF5.588038815504887
aF5.910308115854101
aF6.241394040717744
aF5.614297610520948
aF5.82097523997499
aF5.848902353451144
aF26.09167428307264
aF19.28155141981364
aF12.919076417643721
aF7.118484032732621
aF6.95139332032443
aF6.060848966040398
aF6.226386499322812
aF5.121057049078186
aF5.743402425899439
aF4.245398881877401
aF5.9068760992865785
aF5.666154326648719
aF5.999607620114615
aF5.671763393723951
aF5.778110255388403
aF5.535396976460091
aF23.858430372978212
aF15.955155308383727
aF11.673680845371385
aF6.094550864928162
aF5.392512019141353
aF6.32901930117751
aF5.764132751804537
aF5.555103668678142
aF4.270615819158458
aF5.8657821435977
aF5.046542194451432
aF10.521682191005777
aF10.679269463406722
aF6.542507733429522
aF5.870794853228335
aF7.5149396303215985
aF6.737159293342205
aF4.346720196276081
aF5.606516034882035
aF6.5481956752187855
aF7.037899485109439
aF6.267113438241398
aF5.607913722455104
aF13.775769988887994
aF8.686381161173033
aF6.511639831049391
aF5.341549369722413
aF3.4971368042869355
aF5.025243576854627
aF5.377371836495771
aF12.986868770716903
aF9.244798549415762
aF5.282507606191632
aF5.373860855126789
aF11.439989252464335
aF8.350037050304888
aF8.336364355553503
aF8.311391395797358
aF6.7251735539702535
aF6.076811309166205
aF6.921023426217293
aF6.9858605205507125
aF6.0803812548204
aF5.329705676669411
aF6.9071064297196605
aF5.334991044208969
aF6.867531072520731
aF5.399874735428137
aF9.585278405162466
aF5.36324774312576
aF8.081576145264982
aF6.607932467494619
aF7.604688611405143
aF7.997138662150397
aF6.353346677512549
aF6.508102489952048
aF5.932488394579514
aF6.616325883799139
aF6.445737411007918
aF5.357073495984894
aF6.221906849764374
aF5.235704480649653
aF5.0680088309497755
aF18.481593556873644
aF14.868820433920225
aF13.08099673479756
aF9.154836573611929
aF6.136906165305913
aF6.0783228770168245
aF5.0766152696375215
aF5.252475007041366
aF5.190907996993901
aF18.833135559108925
aF14.84797007315099
aF12.661882425655556
aF9.312579525359775
aF6.153223262343173
aF6.038902953716062
aF4.985499618501038
aF5.179861039635108
aF5.184529735685108
aF6.018597109210685
aF5.716732288192426
aF19.356994935173816
aF15.433605259341451
aF12.359856280052822
aF7.263912141964058
aF6.744386346986574
aF5.009191543755403
aF5.75529777928088
aF19.51593723989408
aF15.48145429922082
aF12.534065951360502
aF7.440390193893711
aF6.713452802663402
aF5.017109146711231
aF5.58456683304279
aF5.1439204969395655
aF5.873461450382494
aF23.97637997238987
aF15.012096912446092
aF10.991428953259692
aF7.195642377623116
aF6.987352565414059
aF7.221519727857522
aF5.674559896237607
aF4.548951687603906
aF4.895805585177698
aF5.139541200937192
aF23.989408428615388
aF14.96520884659359
aF10.731590723364539
aF6.855856938345301
aF6.660606069084619
aF5.981997861187201
aF5.505159765542847
aF6.9939879682540225
aF4.469572626222042
aF5.410205991683539
aF5.740957640167401
aF5.198737837094763
aF21.861712174325753
aF15.604862627349538
aF10.514584302323644
aF6.775044836270382
aF6.219186272614968
aF5.221793139463777
aF5.065626906407585
aF5.764376661984787
aF5.115319326112492
aF22.26108143717614
aF15.808049779957216
aF9.844223899399493
aF7.352112277028483
aF5.9126494947021415
aF5.243279926465316
aF6.114584864747632
aF5.0848182788163525
aF5.717869414781903
aF5.136321420985993
aF5.50977452950675
aF29.994956221654533
aF20.43497600331988
aF10.983683518958328
aF7.95272762456408
aF6.618226117269932
aF8.86984281547291
aF6.571081054501116
aF6.578109124642104
aF5.546311370371522
aF6.299899242487889
aF4.836211239894559
aF5.860358300632188
aF5.886030704470707
aF29.983218354027414
aF20.387102605073945
aF10.954454295309384
aF7.920795129304218
aF8.941747178942453
aF6.449523739928899
aF6.4157388750261015
aF6.45203720899242
aF5.6550293494757105
aF4.851127622129968
aF5.9318465352722045
aF5.7977313998438715
aF5.809700378505517
aF5.026565346151657
aF9.440229310180225
aF9.491018001717043
aF9.883161873672169
aF6.575283866848005
aF7.2876707271533245
aF8.52325090644261
aF6.833910588716072
aF7.005963642016512
aF8.691533295599465
aF6.318675094348
aF6.0792946145716655
aF7.290668272177348
aF4.404705281287357
aF5.534830006915582
aF6.630555948302613
aF5.443231925196524
aF5.833792873340457
aF5.935860733102567
aF6.515170708772818
aF4.437788792184751
aF5.760710892914227
aF6.198747807084797
aF3.7232606324072837
aF4.889223728759969
aF5.057072922322888
aF4.7272007393369595
aF5.026518413327338
aF4.308817287513762
aF5.831833635100559
aF4.371844718804522
aF4.628646450341286
aF4.965366060996382
aF5.9461124307242175
aF5.0750827474832425
aF6.0448629498084845
aF5.1978711321318745
aF5.696865061116194
aF4.569556156874451
aF4.7332905380125
aF4.798544377279375
aF5.302433057912473
aF6.772241748112321
aF5.419456138639103
aF5.4400916078740575
aF5.913211343525072
aF5.41899645740937
aF5.047278990391081
aF5.987457173965322
aF5.036971403070699
aF5.234073266069067
aF5.0021022045744
aF5.017408667199897
aF5.198564061902061
aF5.341628642748059
aF4.4396853476795455
aF5.349752311014967
aF8.2698590307556
aF2.1516582595628395
aF5.985915022929733
aF5.630788724625276
aF3.635059594193639
aF10.914195883623831
aF4.135334732931359
aF8.363374572298714
aF5.539113414421308
aF7.281481008831693
aF6.9600239727260576
aF7.322114402697466
aF4.8481768466494986
aF5.831243642794933
aF5.376214759809406
aF5.117814657540611
aF5.277192787863129
aF6.247578759107218
aF7.188290991766082
aF6.9583102170004905
aF60.42767738609478
aF59.12523416688764
aF46.6470593262267
aF27.63024282929275
aF21.61946977377333
aF17.37140128078898
aF12.899966339686372
aF12.626402408041086
aF11.991473278965854
aF12.369568630767407
aF6.043891841792637
aF10.29248025875145
aF9.801923139015008
aF9.709122462509924
aF9.802157802427637
aF9.873081219248636
aF8.460108287980024
aF6.8050853880250965
aF8.0344605513741
aF8.006866491406706
aF8.705748458543207
aF9.066288669583065
aF6.682176047321653
aF8.020687284079603
aF7.794057900723549
aF8.506538572123388
aF8.357609831225975
aF7.329363176119246
aF7.928940862895927
aF6.226619811003121
aF8.098061910660526
aF5.630254606709639
aF6.296372143592107
aF5.480026695982523
aF6.675195072940816
aF5.597505241980518
aF6.0666458818476015
aF7.2088370118781215
aF5.744277368860642
aF7.1643835899719175
aF44.25950514069882
aF39.82236487248103
aF38.40928306278997
aF22.26292165547617
aF18.931287107978356
aF17.825377529251394
aF12.46376340703225
aF13.19763158844765
aF11.293389273433403
aF10.226766323001117
aF10.416553649642458
aF11.391514094453786
aF9.257052837398238
aF9.998669463116755
aF9.340529655028428
aF8.613302955703725
aF9.182039317102824
aF8.223589784158063
aF5.759379901910879
aF6.427357907215074
aF8.817487174478886
aF6.1951656558953765
aF6.944514062753644
aF6.2045629256844546
aF6.182546470083988
aF5.641411744662636
aF6.265175115264764
aF4.819891128941571
aF2.041525027782997
aF5.50822631781264
aF5.37910461461284
aF5.33314216757866
aF63.74654757288656
aF58.9555713211744
aF54.66487596772015
aF37.22237790323597
aF23.57041274278123
aF16.02675674790621
aF12.535591627205383
aF13.012449294981526
aF9.691495511651237
aF8.65322488901408
aF9.15951782207211
aF9.034555041208096
aF10.071295244947613
aF9.150019352592713
aF9.491377374532425
aF6.880980945570746
aF6.142154184978625
aF8.440581725974358
aF6.288790453668553
aF6.7583976168952224
aF7.266016219815802
aF5.567526825415034
aF6.132043411851015
aF63.81405812321425
aF59.54306674780381
aF52.65156454834366
aF24.56627490719409
aF15.724725789651728
aF18.416476634375922
aF9.431526139084665
aF9.296354304557832
aF7.725003987346798
aF7.086608702606809
aF6.216552627174506
aF7.468872297834992
aF6.062197304729642
aF6.06065431941366
aF7.703783707109588
aF5.918344254125334
aF6.075531239348973
aF5.779108380656183
aF61.29045004887814
aF42.838303829714064
aF34.290149799177804
aF20.20674088067789
aF17.709424675262387
aF17.90436993802454
aF11.49323617169296
aF10.961957611096866
aF12.391664187400126
aF11.6021909927971
aF10.222450708704617
aF8.418821183267418
aF7.65441596082796
aF7.776155974749303
aF7.191178551661199
aF8.549297275133696
aF7.614088157409406
aF6.713338287267108
aF7.464899724778043
aF6.381832543914782
aF8.447875468167647
aF7.3439465493468745
aF3.8000029145557774
aF7.096683829394169
aF6.217700606792247
aF6.081440710270536
aF4.758174273153604
aF5.442266141517897
aF5.665834592479088
aF5.13781989354107
aF4.786029660867407
aF4.699682016732967
aF5.365219645925623
aF6.120348071008222
aF5.040831560837072
aF6.106264166823177
aF71.37352983514913
aF65.44062195413922
aF42.892942610750325
aF31.328192021992923
aF22.820541255624754
aF14.85036474855684
aF14.865815717631982
aF12.87256714642717
aF10.22580462513156
aF10.759692146269119
aF9.990163268466072
aF10.261598862278131
aF9.922821356046287
aF9.815525351991324
aF8.933936099297677
aF9.602598985785503
aF7.778170612214074
aF8.353090860866804
aF7.404048356477226
aF8.697506380103876
aF8.485182314914983
aF7.832111843679693
aF7.088937435633105
aF7.682579340430991
aF8.244816136487177
aF7.030391934923335
aF6.576267407824316
aF6.892341232588005
aF7.0849895814948844
aF7.31608446174042
aF5.365238138650781
aF6.441792142374625
aF5.2046874917512715
aF5.307563546992563
aF5.272117548050613
aF5.917265559886293
aF5.220080108263782
aF5.3577209440049645
aF5.177816691896841
aF5.0352880460593585
aF5.2878942175093435
aF5.280837315269197
aF20.23599865844179
aF15.427648043554044
aF10.056313156627796
aF7.3247939244022415
aF7.98895017509752
aF7.832892055488221
aF8.101177212816303
aF6.548366507345864
aF5.139576601684865
aF88.80737688124836
aF62.362915780230885
aF25.436347887016893
aF25.13198656637394
aF21.49507945440582
aF19.496993926412962
aF18.21134737859687
aF15.73778670160724
aF16.74048863135878
aF13.731791215585355
aF10.727831091111305
aF12.089650462702586
aF10.030749686330244
aF11.39335884969926
aF8.903816235496649
aF8.560800786921844
aF6.477035775126397
aF7.996479312951893
aF6.38373519113827
aF6.9066640223636915
aF5.9068166113193135
aF5.406955500366451
aF3.576428329463812
aF6.4873313256815175
aF5.208904044294067
aF5.130877970317424
aF5.366743440842651
aF5.53877347543872
aF10.990853826717299
aF5.027455844328268
aF96.43893009622776
aF76.61733274924501
aF51.63846505334017
aF32.23262997731504
aF23.35819325917377
aF20.65149195706145
aF18.72390057791122
aF19.650608010059518
aF16.062541087723922
aF15.303513159060032
aF16.251108335177648
aF12.610488080704894
aF11.919900758549886
aF15.19262860253167
aF9.510873693530158
aF8.699813555384791
aF10.199883504435672
aF7.939038592705238
aF8.1266723101256
aF9.494665130091953
aF7.691596383897824
aF6.151774278356114
aF6.224410845967512
aF5.8519054076283945
aF6.045102520726234
aF4.440369358215522
aF6.513181145008026
aF5.121712830648303
aF5.1605300245399315
aF5.828340360880271
aF5.577951751692071
aF6.2048220280783415
aF107.88889788292065
aF53.99052741664814
aF46.93606462338862
aF44.259495089387904
aF22.162531241127482
aF20.616597311666407
aF22.210196229270213
aF17.412182007372788
aF13.256991457555074
aF13.647757882253053
aF9.620700412502627
aF7.711928570202713
aF7.6729758431609785
aF7.729079287214217
aF6.689983721891183
aF6.031977986316946
aF5.959033295471588
aF4.979077507729898
aF5.243595282633298
aF5.648897602403274
aF6.56638520164325
aF6.668003314906878
aF5.1718265500076575
aF5.6351608824818396
aF5.3570680303990805
aF5.681766543916013
aF140.78123623078105
aF89.7328847625836
aF85.20483183743619
aF58.55732766205367
aF51.51246099217916
aF28.444458971221557
aF25.08828454356471
aF23.302300812536398
aF22.347006581412387
aF18.73284361157655
aF24.022325687324127
aF19.098352112399255
aF15.820709269283691
aF16.384047645421635
aF12.793358159622064
aF13.390545294784278
aF9.23378574590384
aF10.24330075526702
aF9.753912663775397
aF9.393515381040874
aF9.646381950557794
aF8.985965881884123
aF9.544355720272186
aF8.691676649701757
aF10.524376042742816
aF10.03074009265722
aF8.688073881763229
aF9.262576430741193
aF8.95092622692725
aF9.122000374089847
aF7.587724548832451
aF7.496859531779131
aF10.173568398267177
aF9.987126503502454
aF10.963680338179504
aF6.342408243156421
aF5.0692666044487815
aF6.783601737292493
aF6.2555118225623785
aF6.059494750636046
aF6.323545955084957
aF5.68377706421038
aF4.247063191851815
aF7.1501572674822125
aF4.948040744727087
aF4.993264682340394
aF4.945510207275738
aF14.081532056939194
aF342.6161097289565
aF49.26861356351697
aF33.323033702549466
aF23.896448730741554
aF19.54692781390816
aF19.612185442564574
aF15.800893874403794
aF14.195494996360422
aF9.91273647225054
aF10.206840631085417
aF10.933197673311057
aF9.57718709510423
aF10.455172418818874
aF10.874546568070318
aF7.5782957550612435
aF8.003931494862387
aF8.162133502720332
aF6.8781870155255085
aF6.185223159108023
aF5.417135154081283
aF5.140339364925187
aF5.755399651186606
aF6.018348084004747
aF5.78216814298674
aF5.410385895826553
aF4.54259628842776
aF5.681465331406066
aF4.663844759129795
aF4.562242119067296
aF5.906183435098063
aF7.2198971829927245
aF5.0259948831487
aF5.646385514901545
aF7.105615234573443
aF20.601593218954754
aF22.83209602005784
aF20.88623156861037
aF20.951094796765943
aF20.957417291119928
aF18.615618694190832
aF18.00562229352916
aF18.944195782663144
aF17.16107487056441
aF14.804102701227979
aF10.927055424376581
aF9.948782286924176
aF10.876280652940226
aF8.332247053935774
aF9.791394150412582
aF8.174598097212852
aF7.101928897748598
aF6.255868955040038
aF7.327293482711933
aF5.379297990040867
aF5.374257428684113
aF4.945391576408039
aF3.4552529304571267
aF6.761849975499296
aF509.42086310146317
aF41.10368209867357
aF17.515025267434822
aF18.068610818626684
aF16.52545758181136
aF16.557290762867016
aF13.138905023511805
aF13.141568860448912
aF9.983325203339737
aF10.409036268395909
aF9.38676548131932
aF10.702235114011243
aF8.611378910642793
aF7.8199378479863215
aF8.392761054885456
aF7.016095503177472
aF7.0494758804356925
aF7.068835364129285
aF7.416499229260509
aF5.7176310288447585
aF6.068164609158938
aF6.450520194371336
aF6.1977600409675455
aF5.271579246248625
aF6.499292638292339
aF80.75487191379378
aF68.19435977126301
aF27.680993017189504
aF24.502667726629273
aF20.066707091198992
aF15.599983094235515
aF15.270702605930836
aF14.034247246498653
aF10.506589882570847
aF5.291831323547694
aF8.229623494098425
aF8.512447125251281
aF6.8319900570737495
aF3.958970025038101
aF7.337218924488822
aF6.513464305367112
aF5.92757902696008
aF5.748052891266422
aF5.5253121715270765
aF6.246399997969648
aF6.0690854475597815
aF6.0930383360462175
aF5.048981320189443
aF6.321083770825247
aF6.142759165809977
aF12.15331433762311
aF9.975865064998956
aF11.628561217027915
aF47.48920358235929
aF32.642636199951035
aF22.690162592660666
aF21.446945472942268
aF16.093153595818702
aF16.1536877972584
aF13.808989638233845
aF12.350575996594786
aF10.759708123774582
aF8.94377869711818
aF8.418494900210234
aF5.500261977467837
aF5.000934955678544
aF5.187744119572696
aF5.071135161037847
aF5.222862994785603
aF24.53154209391405
aF18.900482301468198
aF14.00945578257803
aF11.76733086775942
aF11.379475840831413
aF5.044336823235113
aF5.899703835894214
aF5.211932590822147
aF5.88407772767183
aF12.792755723904573
aF9.60166535312024
aF9.146665605768911
aF8.631490752288013
aF7.648982008190515
aF8.545162708857674
aF6.44001248488545
aF6.164557414721833
aF7.2588312303257325
aF4.634809318603425
aF6.186138393205721
aF7.2291526950564675
aF6.567887554647667
aF5.190266123961099
aF3.1803690794689885
aF5.277665211617787
aF4.223002395937504
aF5.050092409995902
aF5.370508456877793
aF7.2069619169709265
aF5.505987658839759
aF6.741741806276714
aF7.9117564224926165
aF5.741099459217295
aF37.902488339480406
aF27.602699389528627
aF22.8993475698418
aF9.879846463064993
aF11.284245458685026
aF9.441249843685103
aF6.227179886363285
aF6.1712800460536075
aF5.5648751516800665
aF5.409062387805729
aF4.976977872302991
aF5.651180384663492
aF7.275394873853321
aF5.28332644758753
aF5.067949625894274
aF5.062116590762409
aF6.722511125376225
aF5.49698055575853
aF6.108885604442864
aF9.098373669128062
aF412.70611318847176
aF20.01352597161626
aF21.1736014100052
aF11.222560440416789
aF12.62520527173309
aF7.851953095092694
aF8.41373308533324
aF8.580137915687658
aF9.014484850496991
aF7.877103683801682
aF6.987739204642114
aF5.744921322097932
aF5.348388835743653
aF5.979378248496303
aF5.310225203858285
aF6.173385193169932
aF6.603933564381068
aF5.101407348072576
aF5.071550660181167
aF5.004046110202966
aF7.196435444141094
aF45.90361750872142
aF26.03950917604363
aF7.844803635746162
aF9.07564740743842
aF6.741961858846892
aF7.02805569734565
aF9.881351803525853
aF7.0505261765183365
aF6.8899549543703
aF6.2982002002338255
aF5.917052380766991
aF6.191821661902533
aF6.309323728608295
aF5.255496779760398
aF5.1381282479709816
aF5.749810513817367
aF5.621104087165388
aF5.233202382234376
aF5.905603347133219
aF8.680312589618858
aF8.92934370110585
aF54.41282191778542
aF21.998666781673364
aF17.38226135565412
aF13.927875363506468
aF10.366467139404444
aF10.174220190788793
aF12.031635113049667
aF9.559037795383338
aF8.270965821515107
aF8.534250816888036
aF6.543633448645205
aF6.384396115459971
aF7.041423825344416
aF7.0162320351401375
aF4.148997765891567
aF5.597043721635567
aF7.166989075488231
aF5.902299258916442
aF5.243865284693449
aF19.812794142107364
aF13.006736770210795
aF14.394608620468842
aF11.398179403958633
aF6.95618876546878
aF5.8881871460867
aF9.689937663266825
aF6.012883791126683
aF10.314622966183787
aF10.105041040334237
aF9.296851879634971
aF8.364287177690171
aF7.525073409733543
aF5.817586815474714
aF6.920570090802956
aF6.788226508938857
aF5.326555934455934
aF3.8942179139554267
aF6.244432144733553
aF5.589775441942012
aF4.181386078435756
aF4.097973594173909
aF5.173503665318668
aF5.478571319809519
aF5.152190543912699
aF4.40608957701401
aF5.284008893077561
aF5.167350037831553
aF4.915639230442432
aF5.0364740205081935
aF6.025187785303526
aF8.393585410042228
aF6.228995168617991
aF6.8525548431439995
aF6.036329884020972
aF5.362739439697018
aF5.386002626695143
aF45.132993123088674
aF43.46328925014223
aF33.78941463019052
aF33.98941372053904
aF32.6499093349218
aF33.71008845388196
aF27.556699425006233
aF23.277109175512066
aF17.654408354861047
aF16.53510410597289
aF15.618067176887234
aF15.819365926868956
aF11.903952126673449
aF11.737664399602759
aF9.288809354485833
aF9.182338360455763
aF9.404458395421713
aF7.339642358881763
aF8.335933546846029
aF9.112576177270755
aF6.896126976515155
aF7.3504668080017375
aF6.004671078263668
aF7.926626754857456
aF6.773110903366543
aF6.052206871309941
aF5.217474445008514
aF5.1246062978138385
aF11.358877734716256
aF6.933731758377963
aF7.237778808065808
aF43.654818842333015
aF36.29291758636397
aF34.637490255445506
aF31.744429928702107
aF32.79194094413034
aF32.46111237819119
aF29.212468723299413
aF20.798773684166257
aF18.334325561710813
aF19.64153718879086
aF16.017077180372297
aF13.723717752140152
aF12.017218695719027
aF10.94140109272044
aF11.266316596698587
aF12.205957331832645
aF10.380626319158816
aF8.936813184620203
aF8.488339559081702
aF8.325987994941032
aF9.20947464146222
aF8.016984899047719
aF6.13422898028074
aF7.432251711141378
aF6.3402729879011845
aF6.162966768348173
aF3.065136420805948
aF6.937073788325852
aF6.315019037665044
aF5.781333607634423
aF6.058048304592441
aF5.085609811577122
aF5.30575775486599
aF11.712627566500931
aF5.187230526413649
aF8.022925850412364
aF23.309583104595067
aF18.473051155244587
aF16.140342838641082
aF16.170544560238895
aF9.53506371360232
aF10.751320410807722
aF8.617925994538263
aF10.268387339882464
aF9.127193302863542
aF7.519474528203548
aF8.010882555360396
aF7.365314085753992
aF7.268841763815589
aF7.513459742600647
aF6.419387824899722
aF6.6120756859071115
aF7.187891849265983
aF5.685584753438762
aF7.136477487620268
aF5.9236712486130285
aF5.875005273555296
aF4.398004393019418
aF4.437334826163752
aF5.092138185988898
aF5.431369264909155
aF5.432410550611283
aF5.360000565135277
aF19.33475185319724
aF19.180088003545933
aF20.20746553297857
aF17.411969867730292
aF18.308584866871435
aF16.485966457984258
aF11.015577174346454
aF12.7234326940446
aF10.66348930794448
aF9.293406776103351
aF8.981766559418093
aF8.921805837684794
aF6.742569032303439
aF7.050390602802514
aF7.256214831739464
aF7.2587040866593435
aF6.04141757186332
aF5.162127137811068
aF5.7563542691657545
aF4.8738360468218085
aF4.867416565832923
aF5.598166361122158
aF2.6615568550116318
aF5.309645854974561
aF42.817840256168644
aF40.77821448693784
aF26.031240712067884
aF29.12379995310367
aF29.14936428327359
aF25.159879338597626
aF18.859111878262024
aF11.694586774591976
aF10.559877428656382
aF10.643307855998676
aF8.456638749797325
aF8.081736070656403
aF5.352835963823953
aF5.582903456743875
aF6.810592938786414
aF5.9419539550437275
aF6.126849645788572
aF9.82626452814668
aF3.583127167327397
aF4.7367524820981455
aF5.314468909805962
aF48.38058614812566
aF44.20084450886155
aF42.100962416169274
aF35.46386374273853
aF38.415293989291
aF38.13125832971779
aF35.645760128643325
aF32.11842119176272
aF16.548405454804325
aF14.744424349787122
aF15.155122628468465
aF13.07174725792066
aF13.475558256381445
aF12.207051804410476
aF10.648563643968137
aF11.194460246469244
aF11.278093397198615
aF11.327135164338177
aF9.86956001474074
aF9.161148705551836
aF9.549701148717656
aF4.839361661249856
aF6.6265203436559785
aF6.195304103479429
aF5.9223569395112134
aF6.494706315901446
aF7.9869858207987585
aF4.808823709277639
aF4.272735323177184
aF7.060158966780518
aF6.692036598691045
aF50.26503525712943
aF42.901109394515025
aF36.42253652566241
aF39.676981322044185
aF36.4440528016962
aF37.97108133503019
aF40.66376164757809
aF28.51488889726483
aF16.948645212048394
aF18.67233861366749
aF13.618149383338089
aF14.364265478736687
aF13.452519490349387
aF11.378064729083915
aF11.412698011156385
aF12.46325234967402
aF7.8927262935778035
aF10.942396540614817
aF11.502697519531159
aF10.66676047579118
aF10.309963026177153
aF11.552386940382608
aF8.345539560570327
aF7.358582306668841
aF6.348604461192638
aF6.499003845984475
aF6.167695896893479
aF7.8833020218064975
aF5.725705005425043
aF5.296037266088463
aF4.2656043138397095
aF5.580322246083111
aF5.310383276455693
aF7.268100982393932
aF34.807654115858675
aF18.259367459157087
aF6.11477579526509
aF105.91873021623665
aF22.789627937505628
aF17.724667518064155
aF13.732309423424196
aF11.70451532553513
aF10.088218494724645
aF7.198257401670731
aF6.155648294772601
aF5.201808735856738
aF5.314075552936449
aF8.511481088902897
aF688.4844552679461
aF272.9774530536086
aF198.5177094049121
aF46.18588487772604
aF34.11411236259112
aF33.13850323056481
aF21.3638892319615
aF22.304277271090573
aF18.074649218020298
aF17.87531843879384
aF15.378582817371518
aF14.861767169538064
aF12.94962769015697
aF10.300367918212203
aF8.938894611727903
aF6.5371270006227125
aF6.584600491555351
aF6.7390318015103
aF6.28806788882307
aF7.584174019319088
aF6.947908315286179
aF6.0780505057577825
aF5.380966810677587
aF8.1644695723705
aF5.162243482961951
aF22.3204008108568
aF8.903329489468842
aF9.918585879140393
aF6.1017473332415655
aF5.17628163581792
aF478.28297457085233
aF42.389254381312405
aF24.69821151271265
aF28.257788716192728
aF14.077618919912586
aF8.11219458585276
aF14.67907796372172
aF10.314022078118011
aF6.892174054237643
aF5.285732523828807
aF5.388538663117238
aF21.5770301862054
aF7.147086945037312
aF5.119431119678898
aF83.04518136858519
aF64.88348157158511
aF66.6792234102482
aF39.199214844309786
aF33.245896630558164
aF18.56174588549128
aF11.868043116055961
aF10.370581336371458
aF8.616857080081044
aF8.96828107103106
aF7.818244279765562
aF8.975493760347641
aF7.405237889401147
aF8.302745635905463
aF6.999849081154813
aF6.180753637614588
aF5.262037753997978
aF5.034555242507408
aF89.44075220501254
aF64.07892382191145
aF35.1395994432704
aF16.350087100424766
aF11.264416437600307
aF9.255024054423053
aF11.808378586795286
aF9.74062459407399
aF7.492389426504147
aF7.719850084686269
aF6.181354798012673
aF6.312570214569825
aF7.066139970111789
aF6.002984118916898
aF5.2566367675319094
aF4.935437366919784
aF5.46019365937867
aF10.89860494601576
aF227.5075616815366
aF19.94073651255097
aF21.15647586569899
aF19.55543230798179
aF13.655218052143306
aF9.953314717623801
aF14.536948192809307
aF7.869096358831613
aF15.327071948967495
aF5.280066563878702
aF6.618058661296718
aF5.092658256649449
aF41.82738105495618
aF30.81155988286506
aF20.453865490410568
aF17.129845551249154
aF18.64559069404576
aF17.561564268201412
aF19.050512280238504
aF12.976214211742786
aF5.724661548279488
aF7.049157575217325
aF5.686287708905826
aF14.536176848143706
aF7.671577521760822
aF6.837902661722603
aF31.06751812422841
aF11.753945533740534
aF9.588448859183872
aF6.89049726019346
aF6.264666054914604
aF6.160960852607893
aF54.34584143558722
aF24.941459790588144
aF17.515187915757473
aF12.55446246430342
aF9.284013840062938
aF8.276761672226815
aF9.01460015498124
aF7.783634807461136
aF5.638264740352563
aF5.45701770992557
aF5.000246727306245
aF51.663462128058946
aF20.242524120502306
aF19.611383645550337
aF18.181091131880343
aF17.895822451825577
aF15.262935614009821
aF12.693187822054243
aF10.466226489293954
aF9.841306167943246
aF8.13977377774129
aF8.166654047125885
aF8.368332163048832
aF8.21608877376362
aF7.67083332334298
aF7.897692578608031
aF6.8016322148728845
aF7.742459225478267
aF6.2326930859177825
aF4.971010310401272
aF5.77742675667358
aF5.019304421085063
aF5.015455893960871
aF248.42781756575616
aF16.53426218118022
aF5.728071518222812
aF5.243078559720034
aF5.6083941663373285
aF5.751572757363336
aF7.297624221166509
aF5.056411540693302
aF5.013588676836009
aF7.036059770311862
aF237.65328807987615
aF16.78539453586609
aF18.709878010514995
aF11.458956174911187
aF15.099074938912553
aF10.420143443822159
aF8.889882834600968
aF9.831663292247221
aF9.487250525817279
aF3.036129662611452
aF7.0080663059875015
aF6.575531043833679
aF6.416961979262674
aF5.442531505828265
aF6.059151232498326
aF4.603267573217363
aF6.425114382070997
aF5.127426912953071
aF7.389573333095203
aF77.68807440944491
aF30.577616256782022
aF23.58418532390409
aF20.531600910355493
aF15.684446634090348
aF11.774398761153815
aF15.068472856138651
aF9.99038231686761
aF6.83249442696021
aF4.841652688630108
aF7.07329887147442
aF4.6871877467452565
aF5.496799533637879
aF5.687277704833614
aF5.1666778070956365
aF117.1676935564902
aF9.161317738957923
aF9.135079816916663
aF5.063820315185457
aF120.55964708183987
aF64.733247165506
aF59.11832256539238
aF33.15025615122633
aF27.510731759138928
aF19.36112433589653
aF18.433460365415822
aF16.93457575534708
aF13.369397766724452
aF10.87752503589216
aF11.261444509153645
aF9.7594743471627
aF8.25703632881349
aF7.387371685501248
aF8.180945507610303
aF7.110983299391188
aF6.6523653386820625
aF5.253190784631081
aF6.2919318173122445
aF6.557002728048833
aF4.663463301866613
aF5.016928202892472
aF71.82305219943744
aF53.9355274327144
aF53.11825051360344
aF27.48776701317553
aF24.968979037164463
aF21.72286425815305
aF20.634277313095108
aF18.703952889635
aF12.01833858156084
aF11.850863327360177
aF11.261520958245995
aF11.690388115962145
aF8.53859745239583
aF9.864730825126168
aF8.710911299501408
aF8.033997828792879
aF6.0511701057039
aF6.233696409030433
aF5.12092466326225
aF6.974337908677998
aF5.002022683399948
aF6.5102397130817975
aF68.71855865930655
aF20.629091686692348
aF14.008497534449685
aF8.061422210843617
aF8.272183276156735
aF9.474591045581457
aF8.100032226161167
aF5.686909084747925
aF6.7405774550774815
aF5.6685501760081936
aF6.075460640878947
aF5.184604533691376
aF6.2067264588449005
aF4.5798095962230185
aF5.164833129541001
aF9.373435333036543
aF76.60628043056342
aF36.4232525062949
aF17.437909242428738
aF8.718775761505354
aF9.761436378564804
aF7.077457816009892
aF7.476451628259356
aF6.813058517409752
aF4.3913238966950905
aF6.06650151672013
aF5.145215212848304
aF5.181692777174842
aF5.683436740938602
aF265.3074910634751
aF205.2118205030501
aF42.94591471757067
aF25.818319747963
aF22.048503455052156
aF19.232825586100212
aF18.13913291917705
aF18.853627348087578
aF9.45967495652147
aF9.67105128404166
aF21.37091363748819
aF20.38157724510438
aF13.67794357514688
aF13.006473115212295
aF12.083657003780642
aF11.516628808578195
aF8.56945837783866
aF5.911353182555067
aF54.31676763896018
aF38.563643401841134
aF26.26206539584287
aF12.511589801151946
aF13.4764431019621
aF10.476390349597981
aF8.174536427902298
aF6.088917579845235
aF6.876359381151481
aF6.0634942380756724
aF4.733400299735758
aF49.578598735134676
aF46.94752446666654
aF32.51289929419447
aF31.554418541951595
aF27.23232107246049
aF25.67671276212579
aF24.43163537189275
aF22.40557674051249
aF15.260907687711608
aF11.30640987488097
aF11.796078304876533
aF12.715133345905732
aF6.914291095919027
aF5.507700910476578
aF6.615608147371606
aF99.8879843162938
aF65.94523187920598
aF44.599718937818224
aF11.612277417644579
aF8.526860634336042
aF7.8943155713617825
aF5.620886383580433
aF8.307538660853865
aF7.493975539823418
aF6.9016644086949
aF7.8090262607199525
aF5.69334458314216
aF5.096726204995083
aF5.575316400627212
aF36.47818451504668
aF29.188804975703867
aF20.546141801314498
aF16.961122762529588
aF15.032536163706961
aF15.84063850510648
aF14.134823468835034
aF11.745178317356913
aF9.930459422659556
aF9.015832635179473
aF7.251959475918928
aF5.969206774665341
aF5.6301920321893215
aF5.31928770482242
aF8.623240762661322
aF6.086091429100856
aF5.269968031526392
aF6.627011351729821
aF5.481256035875069
aF210.21257165371674
aF97.64404011396648
aF48.08855655342082
aF57.73108128594792
aF22.55855980121219
aF19.50803453197004
aF18.366275162972904
aF13.074650094455723
aF8.501225685998808
aF10.008312254093793
aF7.6646615055358
aF7.435153059497072
aF5.580796186459499
aF5.963169168464283
aF4.858334081299256
aF4.990196177720621
aF17.826596561315498
aF14.116893822491365
aF11.55818171698826
aF7.32806827062896
aF5.362525643140266
aF5.310877398567227
aF8.016145086298508
aF25.556627087472034
aF7.029476127453887
aF5.912779405690659
aF6.332578324692378
aF5.287839867495353
aF9.490756355765418
aF33.5210283928126
aF5.827854031210598
aF5.102370256867947
aF9.867969979082703
aF33.343730364976395
aF6.722117237828714
aF10.09437491723948
aF33.721771988295444
aF6.9750483982217
aF5.016428120666152
aF10.271361083476814
aF3.1703525590055697
aF9.480788182795877
aF5.1441176702670655
aF15.163547645595086
aF9.4588089084194
aF11.998457656722765
aF12.658868932620967
aF8.422016468800367
aF6.3847712204934695
aF5.51396656009011
aF3.8717918038651606
aF7.471554869907853
aF7.095442136957956
aF9.370294533321552
aF6.585852099340662
aF9.19452608040044
aF7.574032113652534
aF9.335715507916412
aF8.046950547102735
aF9.194967721036864
aF7.573802410299363
aF9.388079775041259
aF8.276337451633653
aF11.36795260131324
aF8.702931283705107
aF9.664204093207015
aF11.203101715791032
aF10.342480643646237
aF11.099082854322589
aF9.66463046562004
aF11.203642133270844
aF11.773312167254614
aF5.7322668810261685
aF8.485740643021828
aF8.635375501113515
aF5.073144354404128
aF10.864396572668207
aF5.981812240667595
aF5.631999742054099
aF11.36435635613728
aF5.942657631669582
aF46.8352253931732
aF35.00560797274042
aF25.86818144060676
aF23.874081588363925
aF21.81836177166684
aF21.66061262206557
aF21.350841121300725
aF18.647313277471987
aF18.595334884834358
aF15.910225894002144
aF11.460691011368075
aF11.576372381105664
aF9.61229417438978
aF9.937174810008932
aF9.55372564159417
aF9.238968938361133
aF7.62553597069754
aF7.919125790180845
aF6.172019674449509
aF7.463338570434706
aF7.545935378392347
aF8.19883453085304
aF7.6258627511859425
aF8.199414837112169
aF8.228622116762278
aF6.941765033839032
aF7.936356682407865
aF7.019153437011656
aF5.826042519658022
aF7.92712646252414
aF6.043065775013845
aF6.220112532531393
aF5.643028216925192
aF7.336120169468052
aF5.460167970647005
aF6.860195934257718
aF6.078762943725628
aF6.5912452050437125
aF5.625091879926145
aF5.552272788535189
aF5.391731703160152
aF5.938869711257723
aF6.818502065848918
aF4.730430483204299
aF5.6275541463676575
aF5.561813439125806
aF5.371707319848311
aF5.474688148140452
aF5.120027452808478
aF5.6231417240462624
aF5.207856035305791
aF5.8981771370778935
aF5.560385869149141
aF13.03460506926993
aF7.564923656752508
aF5.8011002526432485
aF12.70993614070897
aF6.3051495785113625
aF5.219143363117158
aF5.157316590392972
aF5.621727797202494
aF9.346830623810355
aF6.795659602884535
aF5.575660685462966
aF5.841374530457349
aF3.4195422341079937
aF3.448653208669908
aF5.067662802365175
aF7.303452252611617
aF8.602466750273452
aF5.675551515666464
aF5.69278306572606
aF5.206693715822771
aF10.508114937173488
aF5.763115350171258
aF8.776265515110563
aF5.947208671997433
aF13.126110460678346
aF9.833209313961989
aF9.149452016226103
aF7.983601852671205
aF6.174739356434397
aF6.9486959533488974
aF5.817927665861102
aF5.8246322930685315
aF4.106434649030569
aF5.503194534117547
aF5.4470925348625325
aF5.561651581991825
aF5.815113168725553
aF5.549412656043462
aF5.524188394766661
aF6.933110783660557
aF6.596148819125339
aF6.456662433735505
aF6.075549358929362
aF33.345830089023345
aF6.721818738989923
aF10.09477338306324
aF5.3867078212726005
aF5.212021186475175
aF8.34122554643168
aF6.769588196142943
aF5.5991686130963965
aF5.300180600036535
aF4.631232714856329
aF9.655057703108538
aF7.59198026964957
aF6.101868718078883
aF5.7052506390122
aF5.111792475929464
aF13.591145946187325
aF10.294582480637514
aF7.879651804358928
aF8.39065593824742
aF7.556323980615578
aF7.586607108880247
aF6.061666730751027
aF5.614264960127891
aF4.954703548890112
aF5.309745173305468
aF5.361044751484182
aF5.1105728469081155
aF5.79560931145215
aF5.525102384963106
aF19.14567601122752
aF14.52064203430973
aF11.60288509431247
aF12.36147195208266
aF11.737274572653318
aF11.223816523091942
aF11.195974112668624
aF10.632669806033539
aF10.860006802727563
aF10.48781668089165
aF10.701019748982596
aF9.131294135648627
aF9.14456182494922
aF8.63419159062003
aF8.121450575311645
aF8.449244822193648
aF7.9756698396562715
aF8.751745742137919
aF7.563940976299768
aF7.68104581217225
aF6.734780741251754
aF6.594613901907798
aF6.7288792634142895
aF6.657495923355887
aF6.699801708032023
aF6.2299255961724285
aF5.825519605788137
aF6.044371669259218
aF5.780369481797592
aF5.5297453769543115
aF3.3763961611228
aF5.56020300658462
aF5.2840289418314335
aF5.445274929259914
aF5.298145583417709
aF5.393227556459687
aF5.420443265866124
aF5.389722991243459
aF5.207959049909007
aF5.1832694437675215
aF5.167692614044976
aF5.624287313527692
aF5.261525993539742
aF4.9236992823962895
aF5.655728690602095
aF6.601011493979312
aF5.170511675843735
aF5.8168382178879785
aF5.161434557991933
aF6.3148037432262365
aF5.334914782792058
aF6.159431332864998
aF5.520388062179105
aF63.94900978533081
aF21.630438075669247
aF16.4024877710114
aF16.224070692726517
aF14.638338628218815
aF16.160523222481586
aF14.228023628352673
aF14.033323185256386
aF10.864862767315223
aF12.343042751915913
aF12.168857738612713
aF12.069574258280944
aF11.815643914795482
aF11.804890407860453
aF11.490053006165724
aF10.800819584043117
aF10.477109039427628
aF11.098059855031831
aF9.079190482719033
aF9.463764301498683
aF9.018578303711454
aF8.905844814041798
aF9.028666632000046
aF8.673240470508018
aF8.331329512135074
aF8.026114775337689
aF8.330990401009496
aF8.26550973662215
aF8.204683995061853
aF8.106531150271662
aF7.827787560470594
aF7.781847690676795
aF8.02065372739218
aF7.969717572566915
aF8.381390112987399
aF7.1208332910672425
aF7.538143568459593
aF10.548174473532184
aF7.4076899662227556
aF7.2034574820949056
aF6.466716588405236
aF7.31324051271492
aF6.814292881188508
aF6.731278510078236
aF6.281249350989688
aF6.46188423297162
aF6.3913949995107675
aF6.2157893722742665
aF6.54841463354331
aF6.210584908686039
aF6.070594654268966
aF5.878980876015099
aF5.693491151924263
aF5.955052026012055
aF5.696834651407123
aF5.844549009897374
aF5.903478050714796
aF6.463138926047754
aF5.789726698621112
aF5.853810257165429
aF5.603027778791804
aF5.759398480994679
aF2.7604991478851475
aF5.808502685240764
aF5.801358239410591
aF4.896524981541652
aF5.457427619652864
aF5.676827099159196
aF6.009256022494857
aF5.581548093232278
aF5.409652927432121
aF5.229481188651002
aF4.967736345321732
aF5.175038471014384
aF4.819920815180008
aF5.097953237833966
aF4.422360529270373
aF5.131557214325883
aF5.008658369143152
aF5.151470138705343
aF3.8302328658381737
aF4.840415919448398
aF3.443214778094408
aF5.065487357225738
aF5.148350330579318
aF8.078939733032845
aF9.5106172209646
aF6.693233828685434
aF7.170795975441253
aF6.5935468825687185
aF7.444401410147117
aF13.291826112143715
aF38.55495714547803
aF6.432438416634897
aF18.011242319603458
aF19.843849136418548
aF14.708696147741751
aF106.73718645923552
aF36.03381195113927
aF28.11096985677389
aF26.92156337671905
aF26.429599662782394
aF22.08327414685597
aF22.7608248620358
aF22.63074757706611
aF21.309835237275923
aF19.111545201398755
aF20.724460931180726
aF18.609084585714413
aF19.206103087735126
aF18.67220192673624
aF19.006549449194363
aF18.440794548477744
aF18.401741140697123
aF18.30893264619503
aF19.10076463283729
aF18.44988686012524
aF17.915152646103298
aF16.819909718325455
aF15.967430118149743
aF15.483893766834054
aF13.839435779220414
aF13.269161152452755
aF13.705063041804287
aF13.067414496463075
aF12.708733915080865
aF12.277502911413047
aF12.341604921319918
aF12.4765317422254
aF12.295832485093696
aF12.10140708096145
aF11.79193704472906
aF12.071730662321553
aF11.970258920962902
aF11.837666076735475
aF12.979802171296265
aF14.583791540026214
aF10.941377194444515
aF10.123446349655993
aF6.542149481892679
aF9.783725705327509
aF8.98578884706811
aF9.142604974319353
aF9.32375821098044
aF9.255847718701618
aF9.261960057451944
aF9.18866399631255
aF9.05990292113074
aF5.265646850123641
aF8.878916872018063
aF8.145590289464604
aF8.293897378674826
aF8.27320053010857
aF8.367611019172362
aF8.368428284495439
aF8.658439299122037
aF7.581677413988017
aF7.928260770362675
aF7.88044482977477
aF7.957121516643902
aF4.71294690153654
aF7.584394725858722
aF7.656150999031437
aF7.48383164203097
aF7.524658358850782
aF6.36158764307713
aF7.378960619880535
aF6.2953696073692775
aF7.269242270492892
aF7.080086558258633
aF6.630473353783865
aF6.884266870061588
aF6.939539813830982
aF6.294450244227103
aF8.710366779652249
aF8.058834624912556
aF6.107898638069766
aF6.330020344465913
aF6.807256602490313
aF2.6330467621817992
aF3.2182514812777114
aF6.073425204445098
aF5.811802744384678
aF5.645970148064606
aF5.5349378568483045
aF4.845248532967869
aF4.325620401776551
aF3.27350249824158
aF4.988043714450353
aF5.522953561874104
aF5.2550373532965615
aF5.398625503834347
aF5.016110663190956
aF5.407195801243382
aF3.958108221195996
aF5.185940571039551
aF3.6663936458600577
aF5.258139897570231
aF5.207289467433997
aF2.69138548912308
aF4.850505790815577
aF5.277062360633877
aF4.9463257971614745
aF5.327165730100869
aF22.688917542279352
aF7.699312514406342
aF9.82976246212825
aF18.761533297583323
aF13.680672872771765
aF23.38749589495565
aF7.234171778206856
aF9.70300128256052
aF9.563050792420047
aF6.079283448057021
aF9.509942193777963
aF7.125671128808953
aF31.191100433116606
aF13.902883758332582
aF8.235355428967997
aF6.331215850401035
aF17.388833849220184
aF7.871551720873997
aF6.227116690599433
aF7.252141560853431
aF17.89814396698731
aF8.38307747693187
aF8.066816745438294
aF71.93113268589991
aF6.397662667807814
aF6.341739025567331
aF6.5643711358279635
aF6.879745282132323
aF126.18804896384368
aF38.153790652612145
aF39.31229103621971
aF35.021061989591864
aF33.83370305418971
aF33.70549774546999
aF31.950889663615197
aF32.066464520685194
aF31.269052521206735
aF33.17887694155207
aF31.613940714661226
aF30.97022798259814
aF31.443134879517807
aF30.834852595330037
aF24.523311459074947
aF23.81949242299416
aF21.20142902808329
aF20.737903826307505
aF19.822006484933013
aF20.01469427353287
aF19.36980979759884
aF18.66806263470428
aF19.144106903606765
aF21.760322970461154
aF18.76320333079077
aF18.52848184223918
aF13.806736067567027
aF17.946140840430168
aF17.394725934108884
aF13.828106353303554
aF16.579292270935312
aF17.241667979631117
aF16.164882473739766
aF15.855010858955849
aF15.605240740344467
aF15.305933803221595
aF14.731976181669214
aF14.480617666719091
aF14.406242051114646
aF14.381034227046964
aF14.024902107618553
aF13.153444603022619
aF13.440161673429275
aF13.626355960631075
aF13.228669678809354
aF12.886484334530277
aF8.670604240948563
aF10.576581469149588
aF11.598309142961016
aF10.27365915513458
aF11.413268317592511
aF10.811654026129537
aF10.66233926596569
aF10.489539418043208
aF10.665995671510817
aF10.860993563006833
aF10.403216230076074
aF9.828202278401033
aF7.55118075762637
aF9.65463723919008
aF9.652621853816157
aF9.48642261830343
aF8.940525008583114
aF9.249308739237835
aF9.041733563435592
aF8.454595485791117
aF9.037264162090947
aF9.860202100508051
aF8.294897694396619
aF8.033555075389147
aF7.979006877859832
aF4.970476526403468
aF5.14944294472218
aF7.218700305474452
aF5.6183185851452215
aF4.318611955714618
aF7.045176831604997
aF6.246670891032381
aF7.287892132147413
aF6.092073333991697
aF5.611697694666422
aF6.231869960040608
aF5.973071198295652
aF4.783764191631931
aF6.254450858079879
aF6.252658803274866
aF6.502755616310465
aF4.879263781266154
aF5.906824257826747
aF5.757558566820313
aF5.748747847891572
aF5.899527291190494
aF4.384338178333449
aF4.355192309713363
aF3.215254503900695
aF5.465120756131671
aF5.531939433320897
aF5.353466613722481
aF4.217856460698418
aF5.15904291493485
aF5.385955984867591
aF4.970484398441236
aF5.097591785462778
aF5.263868679894625
aF4.652147679944097
aF4.9172083550308265
aF2.623154196998152
aF4.639411968864359
aF5.054799376262389
aF4.481288438842903
aF5.267521499607624
aF5.685094037646631
aF5.018558642520284
aF6.337696204593148
aF5.388718972960663
aF5.1135165005397925
aF18.61916578271243
aF7.380990249508348
aF6.642281744325273
aF21.54021395356643
aF22.61899777246075
aF8.041012597945732
aF5.8155806293753525
aF13.088020116372158
aF18.142524304750253
aF11.624269321894856
aF8.734101881859111
aF14.233068501198805
aF5.4828512650701295
aF5.460671403593349
aF30.831848473099065
aF5.899044156222856
aF15.999759315354485
aF7.416574717210826
aF16.330033917413974
aF8.693059233134521
aF12.968272633488937
aF5.947909574073378
aF9.574227689236057
aF11.142986270680392
aF5.777001522977476
aF71.75304924829126
aF8.358244367738985
aF6.708009023078005
aF16.530454758811768
aF6.56430462335757
aF7.505784629511381
aF7.431103246973225
aF9.213208507667703
aF19.12295556694762
aF5.6625573325368475
aF5.930222564909644
aF5.916669716847707
aF5.798863123368558
aF5.881655283132755
aF8.90236896549579
aF6.494227517756095
aF12.698557749228454
aF29.079355656416002
aF5.806456533581627
aF4.816793463746194
aF21.35938604363625
aF340.3382115997695
aF189.3722881219968
aF91.1575048208758
aF78.2735199656659
aF66.10586393881123
aF58.98369323469925
aF51.60181657199372
aF46.59720655265205
aF42.07711236857636
aF35.43943002298715
aF28.374077390458933
aF28.219105337494305
aF24.06627279916298
aF80.67545778438777
aF17.09911790727465
aF15.090360492714535
aF14.190985452420485
aF15.182841451383908
aF14.954240907730469
aF13.343420832873216
aF10.876041283848108
aF12.32809787345495
aF8.49058536825367
aF7.403726047748625
aF7.1821458115307335
aF18.84773439953231
aF6.923946765412783
aF5.188052700436471
aF5.2592314852103685
aF4.722135934762777
aF8.556990794710629
aF3.654946040576906
aF3.9192456674585463
aF4.133585441485545
aF3.654946040576906
aF3.9192456674585463
aF6.424695387754777
aF5.447530683400658
asS'wb'
p3
(lp4
F62.44945944620913
aF38.26660899588976
aF80.82158199425174
aF25.382113217482203
aF10.176596402637626
aF4.573633627663464
aF4.440980932355815
aF3.917272070671459
aF2.6740806631165306
aF5.237541094538473
aF18.730238746454802
aF7.026620448437549
aF3.3939546369740343
aF5.557979037250591
aF264.8113357475413
aF19.868886824074604
aF14.283677631137216
aF13.555485136139447
aF13.384715139237866
aF6.893786575607518
aF5.6177906763528105
aF4.628993157891604
aF347.75628065460955
aF87.3126723394259
aF63.246264892817386
aF46.78014756209794
aF12.465111546185126
aF8.044395194807004
aF7.340396925573274
aF6.238069559691444
aF8.950491513912324
aF5.786662886087253
aF5.624668441591583
aF5.477902613578007
aF4.429644084167233
aF103.38389999886371
aF50.527305745980776
aF24.313688694471058
aF16.895762354588555
aF15.914337399430432
aF14.700622139342489
aF12.905895321139901
aF12.343727594232185
aF10.697772279814796
aF10.533140698164038
aF9.576323599024992
aF9.324333997430562
aF8.816621928028178
aF7.252220511720719
aF7.23001461890381
aF7.025923378966661
aF6.37598766448781
aF4.827533563652116
aF3.584566336921202
aF6.399584690206067
aF5.697737899267168
aF5.608171379178996
aF11.715038883481505
aF6.4135565109362895
aF3.713364734189325
aF8.053841130530461
aF0.1430264591815716
aF20.17306579538459
aF9.324579749754047
aF3.7264030753813473
aF133.94089035453146
aF131.80424107118972
aF40.73213513142611
aF32.36494338919359
aF29.713198480746513
aF16.023458733391553
aF12.87404964801756
aF11.001076490762708
aF10.76513373679476
aF10.214793941164608
aF8.413437001421718
aF6.6505859066502975
aF6.446208743690673
aF6.435402371978888
aF6.412958128137218
aF5.436241937947598
aF0.0006225901500398265
aF9.955693000111037
aF5.656241436846732
aF1.7071363453264723
aF7.6294788808374365
aF6.040470504744332
aF4.881029570329894
aF7.511228448893488
aF5.558411677082224
aF5.200188123315736
aF4.565247952905789
aF11.365581134640054
aF8.233821278731304
aF6.497441184828468
aF6.115474478556652
aF5.119579305221906
aF15.293874865030265
aF5.7251093300271885
aF21.574091667151627
aF8.934424308232026
aF8.719357267043684
aF5.1781814947414455
aF9.388775782390262
aF5.371724262456183
aF1.9197014503055223
aF0.8461724445703857
aF13.101420717190267
aF11.142419691209042
aF9.861753635982517
aF6.87877965388211
aF29.485037448576694
aF23.34024756490923
aF22.024424090276803
aF6.992520000100999
aF6.788866171195892
aF6.750729762141968
aF5.969577471634341
aF5.6732005798302625
aF5.228378108866584
aF5.202223883368217
aF-0.4314317935835417
aF13.123634929887151
aF7.050721805090908
aF15.318182190904722
aF10.24693235029348
aF-0.11273999016112313
aF45.433894784477616
aF44.64974778958342
aF43.75555680085262
aF16.54353165990272
aF16.38574976673118
aF14.926221563133002
aF13.572526274765242
aF7.519573710077973
aF6.94195240150183
aF6.729937832194182
aF5.627491103311769
aF5.252056379569256
aF4.707965045045162
aF31.336622710457803
aF18.961904311498845
aF18.13947879157245
aF16.28883637477888
aF14.996441415959447
aF11.73611589786402
aF10.165507904035259
aF9.141507718711543
aF8.453804379090679
aF6.834907010797332
aF6.7677219090927085
aF6.740244969778023
aF6.468887444359754
aF6.000856982823994
aF5.729534321015116
aF5.577885315223195
aF5.332196477316995
aF5.237485111731783
aF5.204964990880998
aF4.863752197406218
aF4.324255938881838
aF5.660311579977129
aF10.744294043492394
aF14.782443539296509
aF6.6159489307655255
aF4.701956873677628
aF16.43549052771677
aF8.393460516139081
aF6.500238636151442
aF6.0070770040589
aF11.655476060367727
aF10.717963033689012
aF6.925963324534233
aF6.673568257273438
aF7.166620174527839
aF4.659457245485892
aF-0.19494519775113472
aF-1.0500387879484179
aF-1.4397149512677698
aF37.46008765935564
aF30.599765102820445
aF20.366543783646303
aF18.97546724038144
aF16.095191254367194
aF15.910132597274494
aF14.054448150178947
aF13.950887192612136
aF13.59252308382544
aF13.080559625476761
aF13.024380638806095
aF12.811596219119707
aF12.718281043938275
aF12.211447125121147
aF12.095396779131155
aF11.961912384880776
aF11.903496214866307
aF11.880965178028946
aF11.770917246331338
aF11.714284033062064
aF11.642614317828677
aF11.592807168095508
aF11.538624149473783
aF11.488176875412679
aF11.106476294583747
aF10.977537559524594
aF10.835887810521298
aF10.754535198635967
aF10.745439389944293
aF10.641454705972528
aF10.541391442379732
aF10.435167534602213
aF10.1345912315787
aF9.736509549715556
aF9.575771043407297
aF9.51381803801554
aF9.45154852949959
aF9.447072609072734
aF9.430216860138293
aF9.178084828594338
aF9.162277168319664
aF9.152857918620548
aF9.096941992406547
aF8.840629025272873
aF8.832942694999382
aF8.798405900494277
aF8.7980737247754
aF8.639722808566871
aF8.563253932872973
aF8.450556548283162
aF8.32467762771184
aF8.275383794665942
aF8.242964396040733
aF8.168072638496566
aF8.015696151994975
aF7.919356470823819
aF7.8531162741857985
aF7.7449731208461134
aF7.666641443935793
aF7.376111171022755
aF7.194329623926412
aF7.170360977606587
aF7.051376806111053
aF6.967959846530827
aF6.887903523551395
aF6.8207274134026425
aF6.775101290259572
aF6.734176379682856
aF6.519286576140759
aF6.504771638020843
aF6.416918424341638
aF6.307415755600792
aF6.19837542902278
aF6.009734250332056
aF5.98680408940109
aF5.912192502055326
aF5.777094530816638
aF5.737296724913758
aF5.7301894752706914
aF5.629669770370785
aF5.5394439578784835
aF5.458837042129546
aF5.444872786443045
aF5.320588879382654
aF5.314922836927268
aF5.312400978358316
aF5.29577572858057
aF5.2846463888894
aF5.283392550169169
aF5.210413483298479
aF5.1678170059283355
aF5.153005006694044
aF5.1207347132117995
aF4.59487854855289
aF3.820317714652933
aF0.6039499822785239
aF-0.2073450292849726
aF-0.4801443035316947
aF-0.5020885752210107
aF-0.6503901355728721
aF-0.9571518580132868
aF-2.7881995664505608
aF7.889435097490892
aF7.345906880692892
aF5.953076002838148
aF4.581732439530865
aF3.8220899845388607
aF12.237440449783811
aF5.770934675373399
aF5.509181459763981
aF5.30873120378476
aF5.0651813916683865
aF6.276375358482735
aF0.058532476990402926
aF8.975864981141537
aF8.694428524197336
aF5.905684922566468
aF5.37765314896462
aF18.65413599278253
aF12.27427769976989
aF5.746004109770657
aF5.55192264685128
aF5.2465294761532855
aF4.923525940326809
aF2.974787801070258
aF3.8437435907158632
aF25.64824763591837
aF18.62836370445334
aF12.838616605609426
aF7.3066920052297615
aF6.678374442546469
aF6.660153334040137
aF5.790060769822607
aF5.7649400889720575
aF5.650785542110057
aF5.464083727416278
aF5.313977319754713
aF5.174860970768653
aF5.038588860457368
aF4.7803900416165135
aF4.472825907045603
aF24.720021325316
aF18.429011911877343
aF12.60092681652937
aF7.196616107649089
aF6.813002083933616
aF6.591824494836544
aF5.869969603699642
aF5.681522529304073
aF5.6321982792761425
aF5.336141484320644
aF5.288445694367439
aF5.027536583104797
aF4.837653047413995
aF4.673026630540352
aF4.422906587872751
aF3.865667739221727
aF22.67867926915028
aF15.363294630490358
aF11.351954370294154
aF6.342997822590643
aF5.8695943127287125
aF5.746111900600121
aF5.553386457221474
aF5.252677747946471
aF5.061193829098898
aF4.890009805745727
aF3.825604100686121
aF9.955983412480727
aF8.952105998638524
aF7.299945801968919
aF6.43695737775742
aF6.434541274102202
aF6.295915997840027
aF6.0871335503425295
aF5.829529213075906
aF5.293273469491791
aF5.214745899922175
aF4.691384065238851
aF4.274000938417016
aF12.68575151631166
aF7.361068979905165
aF5.947601060167877
aF5.1581519189266345
aF5.149802830319639
aF4.910735481589576
aF4.250767382892033
aF12.159265434691573
aF7.596728930155868
aF5.664248974267338
aF4.275422115675363
aF11.910886292342775
aF7.773497334656137
aF7.289509071205473
aF6.369040049040057
aF6.290498784847133
aF5.786973855545767
aF5.700718662912473
aF5.68613456755272
aF5.5660866649331915
aF5.432348060114328
aF5.1353216199201395
aF4.7220463082801
aF4.619060345986414
aF4.3625909335022115
aF9.803075598239039
aF7.452529100570253
aF7.443568245966435
aF6.9757687656926075
aF6.440880589643219
aF6.356185610351403
aF5.973436416705535
aF5.618183497433809
aF5.453094277970068
aF4.974433958298454
aF4.664709544101047
aF4.323418157245613
aF4.293005063584668
aF3.5400333991265427
aF3.6398659295480216
aF17.641716271903626
aF14.142523148057858
aF12.777388221450092
aF9.026702450070822
aF5.733120705936301
aF5.692098454514254
aF5.423207022885847
aF5.034988246596759
aF3.803387425068831
aF17.980669911806782
aF14.131478321354376
aF12.358965039326794
aF9.195180707845251
aF5.777036252946452
aF5.617845219418813
aF5.31464596565904
aF4.9346488715284575
aF3.791033606830998
aF3.8809312127280817
aF3.9104655936897115
aF18.59993670814244
aF14.611384890792019
aF11.771970486272282
aF7.3948849512167465
aF6.082571789525213
aF5.418265866566554
aF5.130993165208495
aF18.75410229008633
aF14.6379906572732
aF11.94915753361182
aF7.582421192282182
aF6.0786026861444284
aF5.4353655425686185
aF5.045417694782712
aF3.933344037174408
aF3.6612516806408215
aF22.871309672738107
aF14.655296384519145
aF10.583014898467427
aF6.8890750680653134
aF6.67175422313957
aF5.830607314705546
aF5.65566988929416
aF5.585382047669264
aF5.381282745369162
aF4.0620412105527235
aF22.61499269929663
aF14.701647768244106
aF10.438962305976712
aF6.590954011934715
aF6.311330289290936
aF6.0629354387496734
aF5.976155404287519
aF5.616110916195356
aF5.265955921703027
aF4.356857093545681
aF4.421187984357382
aF3.1792640348046497
aF20.71276836796171
aF15.345839845719965
aF10.323943698335055
aF6.3387636471502855
aF5.902866043938958
aF5.530189784014142
aF5.484404319840336
aF4.747130830611568
aF4.614904364051274
aF21.068329306771396
aF15.522284584207465
aF9.505421218732216
aF6.8915362956348645
aF5.6134473088364585
aF5.4178923909269985
aF5.101715460797644
aF3.3742241239348454
aF2.882732699967005
aF5.303501235354597
aF3.3380196224560765
aF28.401784860644426
aF19.40747006872331
aF10.898411503598947
aF7.824694539165745
aF7.200175045339023
aF7.184215076893895
aF6.590928046161834
aF6.586091769425927
aF5.984354423935401
aF5.968162125651665
aF5.731636151618122
aF5.1558495279109815
aF4.593207686531727
aF28.382941889432715
aF19.373555294579386
aF10.845385397413471
aF7.766843087099415
aF7.263665617875838
aF7.022525729274495
aF6.469941823694887
aF6.459260947250519
aF6.1058875981864675
aF5.746508862436304
aF5.587902101408699
aF5.0803608932130215
aF4.502441818542149
aF3.772087778362111
aF9.551972154596015
aF9.503386296324226
aF8.855617497363909
aF8.043381290967895
aF8.022136317560388
aF7.793438194935938
aF7.6018103152059195
aF7.3405400435691845
aF6.781820595683326
aF6.7334612382454635
aF6.245806161216958
aF6.191000612377398
aF6.151889127149833
aF6.145099514584202
aF6.026310346050285
aF5.8698727218652325
aF5.8340090421012265
aF5.725169354226537
aF5.565402293153903
aF5.551927541102054
aF5.547246005272352
aF5.532871008861644
aF5.471472819657498
aF5.352165187202828
aF5.344057304638018
aF5.323187147230917
aF5.319415380849624
aF5.296077977598112
aF5.2529106418477785
aF5.228440266518113
aF5.2218222222071775
aF5.137607127096173
aF5.122175453422568
aF5.109805766233017
aF5.095372501548863
aF5.069637057634632
aF5.058126103924354
aF5.037822017120903
aF5.026725922912812
aF5.00485928097829
aF5.002821517102436
aF4.997323302654882
aF4.996860559833207
aF4.954762993595205
aF4.783850158901658
aF4.6084483146168
aF4.218767200316842
aF5.609715020445652
aF4.792899044194877
aF5.123906439595759
aF4.866650531303403
aF4.814114544697505
aF4.982196211671674
aF5.341628642748059
aF5.6702352719782265
aF7.506110420027262
aF10.168665934754868
aF6.11250984487206
aF6.047296555647626
aF5.486499898868199
aF5.39392251497804
aF12.531531468717407
aF8.907515788910061
aF8.477924517045647
aF7.686804935459656
aF6.971566163520903
aF6.8410229113044405
aF6.619398161262853
aF6.009759938145588
aF5.7282565189205865
aF5.5231037967058985
aF5.25231616537326
aF5.024705218546032
aF4.942578705649696
aF7.209801613791977
aF6.989881889838434
aF56.1876077368471
aF49.49369079710015
aF40.23439194911424
aF26.53507443589727
aF19.88984673156094
aF13.656035991826839
aF12.269402322497195
aF12.074441019808175
aF12.056130598390824
aF11.628559607512456
aF10.69584798465976
aF10.58647793719514
aF9.774167331612665
aF9.643089844786953
aF9.517006618593127
aF9.243814671943392
aF9.115242512220364
aF8.467476120485909
aF8.246984610120611
aF8.100024215817298
aF8.03813690680242
aF8.024551038085233
aF7.3221952044892955
aF7.233259280605985
aF7.2317769089907165
aF6.994343134093519
aF6.880078905155214
aF6.611323158527986
aF6.488557174333619
aF6.445210574694703
aF6.258629267671481
aF6.1291009925422015
aF5.933932407463138
aF5.646623842677182
aF5.5468975957969056
aF5.151473481797863
aF5.036994727529484
aF0.9190304094680962
aF0.2430214382537753
aF-0.11650497870289055
aF42.49806183304965
aF37.12260155154541
aF35.822438072800814
aF18.24968590592423
aF16.47013241846825
aF15.797667673201742
aF13.277385542778866
aF12.355380846659866
aF10.422877445287318
aF10.243580299665359
aF10.146619671479296
aF9.957067726541519
aF9.150204145800117
aF8.711432187360044
aF8.554256989343196
aF8.34654805289572
aF8.105824035131121
aF7.725716872100506
aF7.249901769525177
aF6.691107725895575
aF6.688136899166127
aF6.274349714670259
aF6.238368972607084
aF6.022356803293428
aF6.013848258149041
aF5.796486375690414
aF5.724116999480216
aF5.376869489027682
aF5.334099687430464
aF5.293355219560231
aF5.188720129105015
aF4.6697497474886385
aF61.89807266877314
aF54.661177898364585
aF50.60829543490574
aF29.684110608835283
aF21.076120177677986
aF15.516606405714269
aF12.027614397145012
aF11.853459252282784
aF9.804652044585104
aF9.238931337366498
aF9.02786401148368
aF8.53385125318531
aF8.384702843846151
aF8.33531840677492
aF7.979349965475893
aF6.534301292023691
aF6.318031334192568
aF6.283912655485903
aF6.2358232517495615
aF6.188291020986759
aF5.944827106932923
aF5.238919309197011
aF4.904460460515582
aF59.51490148423172
aF55.06545740137863
aF52.05072088005945
aF21.858645371738366
aF15.259089428914551
aF13.280830693305747
aF9.458443203368844
aF7.754869739131577
aF6.954814945014799
aF6.874588929963821
aF6.345612300157969
aF6.232108991966068
aF6.1535676230093825
aF5.792324072021548
aF5.7679081645792625
aF5.592167632090766
aF5.226775401430689
aF5.172511227621379
aF61.34653727028077
aF37.66509774673138
aF31.563555386670817
aF19.780081291510893
aF16.588897361373466
aF16.248497500089126
aF11.523531074663738
aF11.522464783006225
aF11.105537616382813
aF10.459931177531224
aF8.60654281000404
aF8.523467815988855
aF8.072290679402682
aF7.626299148915183
aF7.565474459638734
aF7.5463074259730085
aF7.482482993025223
aF7.142406841745955
aF7.0598018360349295
aF6.706214456862233
aF6.5450077088227685
aF6.357733811369848
aF6.247596501321354
aF6.03860288517556
aF5.6919089971424945
aF5.571737754157634
aF5.571381964267736
aF5.525508700130018
aF5.298890354940119
aF5.141428676655694
aF5.139941425801588
aF5.117905566715492
aF5.11265919299836
aF4.7751565195674335
aF3.803040781186254
aF-0.5426081182876158
aF71.3197438481168
aF57.76385725012496
aF40.13570812095536
aF28.114086349447643
aF20.32567338673705
aF14.37759791151639
aF13.412978858458835
aF12.88727086026499
aF12.405740561427226
aF10.808672749403033
aF10.0372789665691
aF9.859441801407336
aF9.680272158917537
aF9.504772101636354
aF8.987047301018507
aF7.97323548614636
aF7.893082858159087
aF7.856854098456311
aF7.755938137488947
aF7.589468016171438
aF7.5710875400340685
aF7.478300637329664
aF7.144694541965723
aF6.831319520675062
aF6.746224521327843
aF6.5209986402001565
aF6.490854185180536
aF6.3371925172125865
aF6.1942353086313355
aF6.063121575248375
aF5.857564802373013
aF5.72376729737068
aF5.416286077154987
aF5.390867717497714
aF5.360629683877219
aF5.2479109352640085
aF5.07317792620201
aF4.799185873266243
aF4.7394554422144655
aF4.529204287656375
aF4.48060753448217
aF4.386719945025069
aF17.82883364496156
aF13.393611660997234
aF9.993416963305526
aF8.424097465368398
aF7.96851475850167
aF7.914534885898541
aF7.373807736495
aF6.699501967512681
aF5.213119922862883
aF88.8298474920453
aF59.32663662356399
aF25.436347887016893
aF24.305554848930157
aF19.56759880014621
aF18.34385846771594
aF16.91647310034612
aF14.532267543232148
aF14.37701633596876
aF14.286859927822722
aF11.464823105470025
aF11.39204603564646
aF10.605044316395793
aF10.295789081576194
aF9.024832188007153
aF8.371867170029281
aF7.84948043561034
aF7.5440230453449875
aF7.066978293192881
aF6.652236684026022
aF6.336512436046702
aF6.177453336984903
aF5.73865799261261
aF5.004927512668849
aF4.865307395055821
aF4.483851208429892
aF4.299171192414719
aF3.8397537694315216
aF3.8195784834276814
aF3.440418315697928
aF89.68497893240541
aF69.17386861650064
aF47.27214290684206
aF31.39511837821332
aF21.690353282621285
aF18.80931042688296
aF18.45658128880261
aF16.729817009079436
aF16.715295194036056
aF15.251184137196127
aF13.953161997536881
aF12.415124355118019
aF11.555716645688104
aF10.034395046899322
aF9.387527924490993
aF8.713744226276207
aF8.32194021693379
aF8.277597554728969
aF8.212907151328203
aF7.965895652632509
aF7.0673284080656655
aF6.103348628533658
aF6.023865205732192
aF5.915838480213213
aF5.751638617964134
aF5.292970030201778
aF5.160016086047853
aF4.987938617158735
aF4.890936922013232
aF4.590850845226335
aF4.249354750049692
aF-0.2939014033738825
aF99.88586742758258
aF51.29995335853772
aF39.6749137535809
aF39.52438992139708
aF18.720542774797945
aF17.556523397567606
aF17.50243033853403
aF17.396076863716118
aF14.293906079973006
aF13.591179037455941
aF8.358283484915482
aF8.111803247290638
aF7.6722611921295085
aF6.554976152435793
aF6.3555476261627675
aF6.272066724107456
aF5.967521864290049
aF5.826718724278004
aF5.7939497112695335
aF5.461369349767217
aF5.398134795469854
aF5.196513146555908
aF4.327709241427973
aF4.274782432578772
aF3.93307295603378
aF3.3718502590506563
aF133.25061865357642
aF83.19546316795281
aF79.1508437423544
aF56.006976048994424
aF47.318388619613565
aF28.220464812332345
aF23.10316815776147
aF22.20890290051737
aF19.481064288713448
aF19.075037641633923
aF18.35113994008949
aF17.069259233840132
aF15.646011206692634
aF14.428095571970234
aF12.481152580899339
aF12.24787642112474
aF10.43702615121925
aF10.119688449791985
aF9.824562141883687
aF9.464366992094883
aF9.201883777079118
aF9.000230390680043
aF8.995153059057209
aF8.930589134916643
aF8.871271431923804
aF8.64411008402269
aF8.629271058226385
aF8.34283500644618
aF8.30566829101445
aF8.014900522812269
aF7.691826285562941
aF7.011442814974216
aF6.891555725614767
aF6.612634251582245
aF6.59035362635032
aF6.528585968416317
aF6.3296155412919655
aF6.270422248408426
aF6.2555118225623785
aF6.108711357734845
aF5.905228294595804
aF5.618265720397846
aF5.613744899778499
aF5.405271033803333
aF5.3585146727740645
aF5.109903455303066
aF5.067849106193316
aF1.9974134550467024
aF309.08995719021664
aF47.00938237071066
aF29.914908173039173
aF23.45125384614818
aF18.531754545291477
aF16.52564880123623
aF15.702685776385493
aF11.02299287105067
aF10.530435230625178
aF10.154473041562614
aF9.957385496670362
aF9.57718709510423
aF9.416934962552386
aF8.554613985974338
aF7.298439525790298
aF7.1618073872853305
aF6.9084093327381035
aF6.580416991529522
aF6.2659705619938855
aF6.258344851711729
aF6.149056079890583
aF6.008710691142462
aF5.983547780920955
aF5.844374898881612
aF5.616579708258223
aF5.374592929059453
aF5.163616888830922
aF5.104731462232008
aF5.003304000523926
aF4.9950427748070965
aF4.809617133841178
aF4.558719582247043
aF4.5580677938204905
aF4.363476696792495
aF20.865852058567647
aF20.00270935667352
aF18.514577034274964
aF18.318773516605106
aF18.207411020855783
aF17.648781471519136
aF17.057428070651902
aF16.744262330560638
aF15.557661873950716
aF13.205518456855714
aF9.636533919709754
aF9.58785604208098
aF9.5466733204695
aF8.306522751633866
aF8.171457796325816
aF7.457394594145732
aF6.468296905258884
aF6.346723424726942
aF6.10960754769441
aF5.772023582300466
aF5.6648062609515355
aF5.229796876236393
aF5.031212769108982
aF4.9951829945803325
aF446.996132372842
aF37.403084516432756
aF17.24815781513921
aF17.038214486398033
aF15.055449713598044
aF14.039732784522384
aF12.756466488404213
aF12.603753860934852
aF9.740640087473407
aF9.593973468430383
aF9.054640451902962
aF9.046089233597863
aF8.64673338681921
aF7.562714556701313
aF7.5057053674425225
aF7.183250336806245
aF7.010910153775791
aF6.871558214853468
aF6.266121951939
aF5.899142239521438
aF5.4684585581656036
aF5.319611564212064
aF5.149605651553569
aF4.911872043603628
aF2.161294942957212
aF75.08404117448886
aF57.47324859702386
aF26.546761864713147
aF21.702975656490725
aF18.08486124329019
aF15.28055897966022
aF13.770454318694286
aF13.076167897255448
aF10.1674959908095
aF8.327520804159892
aF8.177728184454981
aF8.129820362163503
aF8.040642563488952
aF7.198991134585603
aF7.066661917397732
aF6.600515635372628
aF5.898606314379563
aF5.706620400857421
aF5.693332976742545
aF5.62224406217631
aF5.575191612720567
aF5.406256845533991
aF4.708500935081999
aF4.589875788765049
aF4.30057746177245
aF0.6749239203889954
aF0.4011201437365707
aF-0.2130688482305999
aF45.673433801681966
aF29.897182803113946
aF20.21749051764812
aF16.052072776671288
aF15.719542934541293
aF13.18588367960202
aF11.916392661343524
aF11.298699180396891
aF10.126970689829689
aF6.602519069741511
aF5.461823358893369
aF4.997036259511051
aF4.8148004534787825
aF4.296800611306929
aF3.803268396362464
aF3.5138701743701333
aF23.997198215580827
aF18.371637415705237
aF13.758210631385289
aF11.185136757543207
aF10.674409829610337
aF5.005079461255635
aF4.655198230492661
aF4.468499835010281
aF0.8918391634524031
aF12.9623985281095
aF9.969741421740716
aF9.700818026671378
aF9.454952176843255
aF8.789612799637633
aF8.575605069914085
aF8.30231234643026
aF8.076725114954218
aF7.507605789071322
aF7.153932683899586
aF7.068858752467616
aF6.996488219103706
aF6.567887554647667
aF5.855744033142285
aF5.220636811107178
aF5.169132234924134
aF5.167658273461135
aF4.962842392620902
aF4.3416355004277
aF1.1261776653420603
aF0.6126448945571499
aF-1.4646797656148718
aF-3.103326674754735
aF-6.085348156716637
aF34.652058428476145
aF24.44663670392468
aF20.980080228062416
aF11.313056394639196
aF10.202710505710296
aF8.780790326200977
aF6.606404917355094
aF5.956837219485651
aF5.5589086828895775
aF5.522658496327997
aF5.4939530725404335
aF5.273669182217279
aF5.1380093015247335
aF4.839850446675403
aF4.707932001627337
aF3.8350059143657966
aF0.017622497907403573
aF-0.5670552767057815
aF-0.8628064367431139
aF-1.5226531709421829
aF362.0940174829248
aF19.40912022100312
aF19.000030137683282
aF11.196972555060118
aF10.504437768088657
aF8.310106587385002
aF8.180159222665463
aF7.837792633062608
aF7.793643662328469
aF7.744940817034063
aF6.686046154674218
aF6.440891858744744
aF6.424225176487178
aF6.0570114285572325
aF5.526359396421279
aF5.254125924140719
aF4.7635951169138515
aF4.732317215318019
aF4.226884518704283
aF3.0533141598338416
aF1.2556270461884471
aF42.58651605796033
aF22.654417349256605
aF9.204663800785903
aF9.099938637995828
aF7.3039324026637
aF7.252761621636437
aF7.170732027440407
aF6.806334570594332
aF6.696184542511031
aF6.0218450364057805
aF5.710897895400206
aF5.671929671679363
aF5.619333282501897
aF5.037663294288366
aF4.90300130807425
aF4.636123920949504
aF3.934809257996315
aF3.3216369094368483
aF0.06705416408937473
aF-0.8488569228167694
aF-0.924718837369822
aF51.538405230219794
aF15.794627946040325
aF14.995347150215222
aF13.296548249992554
aF9.88153353874885
aF9.667278775797644
aF9.477521793205275
aF9.023291419153349
aF7.365135848612055
aF6.623465864028182
aF6.561042636915666
aF5.959526712480493
aF5.929857991187125
aF5.584893317480288
aF5.003783997637561
aF4.765189049836335
aF4.650525690937481
aF4.568006870812866
aF4.4449690865932245
aF18.549846473709017
aF12.46960030959728
aF12.168409064526408
aF10.965874763024765
aF6.1340884087935255
aF5.755227242714543
aF5.388933637225629
aF5.386232561689007
aF10.87109897428621
aF10.274303237943206
aF9.665331283687435
aF8.39456896750486
aF8.34286453402346
aF7.691401184822401
aF7.177016864766192
aF6.553172456529271
aF6.425761470108153
aF6.353855619555152
aF6.244432144733553
aF6.229158712266967
aF6.095196428479867
aF5.6456480696335465
aF5.569949135260803
aF5.478571319809519
aF5.407815480505347
aF5.3950797723205115
aF5.362635064285144
aF5.0838064445409925
aF5.081062423863979
aF5.071013861733068
aF4.9264353421325
aF1.6852395089320729
aF0.9099385433416972
aF-1.011274071480894
aF-1.467788656390359
aF-3.101966577059758
aF-6.028798297781923
aF40.87089711476659
aF38.37720922252214
aF32.72747793706443
aF31.105198892870398
aF30.291012800064987
aF27.6501649095165
aF24.17296164600593
aF23.367084463349446
aF18.73406363036164
aF16.73639816266165
aF14.161962409532864
aF13.231417491037927
aF11.661588729451845
aF11.567116830448551
aF9.345150513229367
aF9.182875723550325
aF8.595681989036443
aF8.032710149766304
aF8.02827558320684
aF7.813382259797169
aF7.472497479576306
aF7.263364588756533
aF7.030038399248063
aF6.991862840233521
aF6.315980491660284
aF5.7669156071527325
aF5.343427113904888
aF4.567057950375683
aF4.566305845083446
aF4.280967142129971
aF0.7079084449730081
aF35.66148588243394
aF32.791748823203896
aF31.792145668542343
aF30.95201079700748
aF29.45914211651996
aF28.88499055595652
aF25.125756257677523
aF20.88291743681193
aF19.530558851156854
aF16.653773593774527
aF16.195682209861946
aF13.320211736600287
aF11.813001633482394
aF10.710478208151477
aF10.171885089373694
aF9.099244553834005
aF9.082691171613362
aF8.941111895856146
aF8.64305165718927
aF8.221663786886612
aF7.8850530390518685
aF7.556444281422138
aF7.279526590533643
aF6.988021209420262
aF6.848787373000281
aF6.829593292303947
aF6.493799930908755
aF5.990828610505402
aF5.840199154106053
aF5.719287753236474
aF5.624171001362416
aF5.528507778684762
aF5.359695786722508
aF4.620766636668043
aF1.6579793389239723
aF0.8269245526507064
aF22.906811285841087
aF16.984519766783187
aF16.00712915716507
aF13.211287715629027
aF10.473212928514835
aF9.829803234809962
aF9.773976658846099
aF9.422448902241637
aF8.727192042313026
aF8.50339023568685
aF8.034832915208126
aF7.306034330840681
aF7.2989131910709215
aF6.37332549074777
aF5.8074437792359825
aF5.723464790590628
aF5.635443499307902
aF5.524343601650812
aF5.260723039069053
aF5.2211514717419325
aF5.1350698444422385
aF5.043938404063564
aF5.0311193422676865
aF4.803660765463619
aF4.571414743249268
aF4.177017169273782
aF4.009417347946154
aF19.39656795303456
aF19.20128979975769
aF19.1037670048288
aF17.127280024746703
aF17.106873048268042
aF16.861737787378456
aF11.149299685961648
aF9.91441040641551
aF9.247925552237543
aF8.902475398700963
aF8.759651652836522
aF8.304335046399881
aF7.726611882214629
aF7.595627174729928
aF7.413671912229247
aF6.97163094929189
aF6.078481341378852
aF5.540880974200951
aF5.401858365836426
aF5.275071732778126
aF5.139525956269262
aF5.126174524281921
aF5.054453755399751
aF4.9187646771352265
aF47.6853326542685
aF36.60460096247501
aF27.73951599193045
aF24.91482547691332
aF24.31828164989977
aF22.181349381321827
aF16.15742847853469
aF12.686396174444587
aF10.944056492754688
aF9.893822726760584
aF8.089720336186629
aF7.2575689815338
aF6.631364867007407
aF6.413199202117981
aF6.02266364095209
aF5.767784049987347
aF5.719222479817822
aF5.66135871120816
aF5.3281834159915125
aF5.056926808173091
aF5.022628950675824
aF43.97896461209169
aF41.18524147739584
aF39.64758333586056
aF38.528903434188564
aF34.952841688578204
aF33.794528832288535
aF32.257183877568224
aF27.337222728513602
aF17.960427283044385
aF14.808325729530564
aF12.594699315173381
aF11.797050732857072
aF11.791993630575414
aF11.38158123345071
aF10.691007917660494
aF10.610187585599702
aF10.47550680494034
aF9.793820944515346
aF9.633908115600141
aF9.567124473120105
aF8.81877130937731
aF7.876335917919987
aF6.282683280478683
aF6.238146829614923
aF6.1978130542655805
aF6.176522221839484
aF5.6841099466592855
aF5.4716394027787985
aF5.279571383590233
aF4.411807616939915
aF0.6597180633990204
aF45.35400745666721
aF40.20287106572589
aF39.60955260252279
aF34.73151845961128
aF34.292544818799385
aF34.18187572166028
aF34.08534274244453
aF26.00889272654984
aF18.387957446312992
aF15.826586777268465
aF13.683775710353105
aF12.773093950155694
aF11.789519570048876
aF11.629875262195293
aF11.014237977530264
aF10.910648525887261
aF10.853461490210718
aF10.828138426405882
aF10.80864420063516
aF10.122511171137246
aF9.658192024763707
aF8.59283485694667
aF7.795272637209723
aF7.705107721156089
aF6.250954617541535
aF6.186806265543476
aF5.564316370340554
aF5.5226199550833766
aF5.4635038499160276
aF5.3904313386103295
aF5.276778291996979
aF5.111179481852207
aF1.6900074889679446
aF0.8011283221369806
aF34.9018740885114
aF18.9158560956307
aF-1.3887131539955622
aF90.25658501025173
aF22.42371972668871
aF16.549601160137044
aF13.049166359606385
aF11.51879362550601
aF9.673847785218145
aF7.434306331698165
aF5.439227805402046
aF5.167075162359137
aF3.6733407736632633
aF-0.6072132561857424
aF651.6533195446002
aF247.5738742455561
aF186.06906952987876
aF41.15327187850706
aF33.815142378973796
aF29.809579886708967
aF21.326914771632076
aF20.390732211446334
aF18.223176369802413
aF16.478611567935992
aF14.817051786071167
aF14.360696627311395
aF11.56667540282433
aF9.926882237467552
aF8.007087866217885
aF7.160732785857537
aF6.922115340285728
aF6.672339912942258
aF6.5576403864712525
aF6.5427664180830805
aF5.9040895738645105
aF5.737014900667537
aF5.581611378619214
aF5.562215000562216
aF4.4310658740528135
aF16.937907889317056
aF8.881538500136347
aF8.063927353238842
aF5.610064886351842
aF4.651209115621826
aF446.98922802491813
aF44.93112731962062
aF23.773392511397844
aF22.499579403841267
aF13.758017493653453
aF6.308128490535296
aF6.185843514231701
aF5.365788817565433
aF5.111672505106916
aF3.895041361603611
aF2.303821668547541
aF15.657900201836679
aF6.138351921822003
aF5.377017979200533
aF75.70944692563951
aF62.362117510181186
aF61.536563920651105
aF37.44930813301335
aF31.13048383613892
aF18.5723339782048
aF11.268952206302204
aF9.764549190510165
aF9.580686437901738
aF8.96828107103106
aF7.731936233314428
aF7.186616046571273
aF6.4788276541684375
aF6.391293417333309
aF6.3792139702114525
aF6.1576228401183695
aF6.059385248151453
aF5.2896883000088675
aF80.28215876300732
aF63.055983337057285
aF34.388394322937465
aF13.3268631686726
aF10.053078093032434
aF10.023636102847997
aF9.438290600739254
aF7.730461192943594
aF6.258247095252327
aF6.093800361655271
aF5.933157149180918
aF5.722234461716816
aF5.140761723334042
aF5.113386076918777
aF5.110414329053747
aF5.106748377759094
aF4.984185350812601
aF-0.11512546554995128
aF224.93221836726826
aF18.362175286751405
aF15.357613206473598
aF11.950208065575529
aF11.033101830767482
aF9.302810764445645
aF8.573230297715192
aF8.08348146612505
aF5.385177291627096
aF5.1777961351264645
aF4.468453352451372
aF4.250281800428066
aF39.2948184867036
aF28.780071297783
aF18.796789852508414
aF18.019204512613207
aF16.95246639961539
aF16.831383261855713
aF12.963801492252744
aF12.684116044621234
aF5.499704409414536
aF4.6522947671465165
aF0.1242227954621848
aF13.327628594139457
aF7.036209505753411
aF5.955078309653191
aF25.369040266573467
aF11.1706498431639
aF8.769336105104351
aF7.693370368114097
aF5.903033509795509
aF5.348762751547646
aF50.79454258170456
aF24.58865125817119
aF16.748390934177912
aF11.053071591391133
aF8.577233344930399
aF8.239751269624035
aF7.699159692824031
aF6.4730347507263115
aF5.050661348600288
aF4.162624116479062
aF3.775514304746747
aF47.48013907397705
aF19.798710314958875
aF18.601295933831675
aF17.28707661251426
aF16.288884915288193
aF14.705933070110364
aF12.2818826332568
aF10.217337198435876
aF9.4001879587754
aF8.237068238832778
aF8.106479069767238
aF8.002574055056442
aF7.84670667758878
aF7.12607482561322
aF7.067889593665183
aF6.580785040516635
aF6.550986968658947
aF5.769334566499
aF5.372223136243745
aF5.164119764983674
aF4.141335061650121
aF3.959060672973687
aF238.86356496016788
aF14.308381023040194
aF7.112529950030483
aF5.295792722513197
aF5.260764740163025
aF5.176307770846966
aF5.166129692385407
aF4.236869594085254
aF2.4490796703640623
aF-0.05349283438513533
aF237.65328807987615
aF17.408699212805555
aF16.879539240239986
aF12.670190818219789
aF12.2210718744312
aF9.754382837600296
aF8.58799512037012
aF8.482789810718055
aF7.587524225693046
aF7.325551642388858
aF6.635216688526981
aF6.488231946555969
aF6.029561060747271
aF5.501977639942031
aF5.373235661691751
aF5.295489712234156
aF5.186451726723557
aF4.853168575042306
aF0.0010886561129553806
aF72.24077833689088
aF30.80039699574429
aF22.336763875098466
aF19.301861873671523
aF14.004081645933606
aF10.898293013423354
aF10.833459046935792
aF8.428182561899277
aF5.810037573460399
aF5.453337440422131
aF5.338496912323118
aF5.259709876670648
aF4.023260715167655
aF3.9598293946737937
aF2.221079936148268
aF102.33532623647154
aF9.01559940536912
aF8.975061697727755
aF5.181763725851498
aF104.90228496595668
aF61.22968719757238
aF55.47059788558423
aF31.323142261034665
aF26.66586264851934
aF20.78325496339681
aF18.840748143154048
aF16.97047339401649
aF12.16973984205784
aF10.23953877064482
aF10.117332799817213
aF9.573479959393486
aF8.262027851047678
aF7.528582913570943
aF7.256534098291381
aF6.618050070486028
aF6.448897208741562
aF5.781822241825807
aF5.627219665114403
aF5.569374362994468
aF5.562875055540238
aF4.143286387049847
aF64.87079692588496
aF51.57254842425402
aF49.164873714050856
aF27.501533127204613
aF22.746586040116128
aF20.691108112421897
aF18.488627669877804
aF17.487009619395327
aF12.01833858156084
aF11.389177328441004
aF11.261520958245995
aF11.255252564373283
aF9.360936206802787
aF8.756622282253748
aF8.386760496547293
aF7.581298657193623
aF6.14361932767236
aF5.8686758534149375
aF5.455565799120391
aF5.326906831213648
aF4.278239808716808
aF3.8301888991902113
aF55.644289586391544
aF12.163517549121769
aF11.285834168730615
aF8.845290266747774
aF8.449960723194069
aF7.943464976106522
aF7.436860776297062
aF6.439648895617998
aF6.300481987799151
aF5.951536315538628
aF5.717310138672758
aF5.135787465162042
aF5.087778272079398
aF5.055501761736964
aF3.8144945716289733
aF1.2319150245224273
aF71.63392626615142
aF35.951783624998406
aF17.240722987451598
aF8.3920133413061
aF7.891120171513119
aF6.1599853902173685
aF5.7201654829659105
aF5.663553678630266
aF5.086958410307219
aF4.586888372329316
aF4.294684193675967
aF4.006820204503058
aF-0.009109625577688327
aF232.67024519986157
aF204.24098604825173
aF41.116637715803016
aF22.25931659527161
aF21.483043053576043
aF18.73390394946729
aF18.13913291917705
aF17.291783651626638
aF9.38751018873976
aF9.16823456660085
aF21.268835883900007
aF18.43097354868652
aF13.306850490059311
aF11.365294159743884
aF11.032334154130517
aF10.389065585053736
aF8.181335725365102
aF3.2054688331153565
aF48.93961888282446
aF36.231063743999755
aF25.69982967808889
aF12.349231127465266
aF11.951151092506164
aF9.59859961027285
aF8.351418562546785
aF6.756202016822959
aF6.031885029618496
aF5.6658128278916315
aF5.025662027863335
aF45.48351346075864
aF42.70142855218125
aF31.312788614154087
aF28.54580630105875
aF24.70527650972128
aF24.161149764136873
aF23.79637585708351
aF14.422111667416644
aF13.115277491295586
aF8.777966760044531
aF1.0486989388671806
aF12.410916079255095
aF5.907238750698943
aF5.680005570281834
aF4.404559088375249
aF86.7392185015652
aF61.53234200365322
aF43.31130638431389
aF11.293046558238471
aF7.698859319344798
aF7.631997014668943
aF7.050170633890906
aF6.763084465883679
aF6.647843662697572
aF6.4496204105457124
aF6.353548420810903
aF6.126056528135518
aF5.307239028193104
aF5.122683870451397
aF36.47818451504668
aF26.234805604325704
aF18.514383235599876
aF17.84928571440966
aF14.915615596701064
aF14.10039896769259
aF13.139092760676082
aF11.464568971480984
aF9.493479564445412
aF7.64000802375593
aF6.360397245017217
aF6.009697824372653
aF5.9174000955338215
aF5.908564327107049
aF5.784113572458053
aF5.700591133518148
aF5.615031676232665
aF4.831046160715918
aF1.4909697154775738
aF194.57600012145076
aF91.77248232491644
aF43.63758576169755
aF36.85914742458912
aF21.582165111647292
aF20.458782673076172
aF18.474618669682208
aF12.833248327792505
aF8.629153086438041
aF8.378452856613913
aF7.444352903148563
aF7.426596196385575
aF6.2637588927584575
aF5.872204551335128
aF5.65712065232596
aF5.0257604892253775
aF15.911967142198415
aF14.547421754525088
aF11.652579429184993
aF6.592912783880534
aF5.3835882678316525
aF-1.1016868916717348
aF6.826542519704299
aF23.59496342539072
aF7.177199509954566
aF5.814916940571044
aF5.7182468881882125
aF4.101764831087212
aF-0.38787719857181935
aF30.144727469164767
aF6.178904697951188
aF4.750307359906724
aF-0.2665656737354738
aF30.268955527484717
aF7.023489505309932
aF-0.29382405542343365
aF30.62339853145515
aF7.293763612201773
aF5.0871163972725615
aF-0.2522822702317837
aF5.185769307868778
aF7.680631803074906
aF4.428372763903488
aF12.695820758582814
aF7.205705831241597
aF10.735916602211725
aF10.296232190576783
aF8.672339237972949
aF5.625929268359945
aF5.51396656009011
aF7.597465798102351
aF6.693472764589137
aF5.767604263790917
aF8.043426429123418
aF6.507858311606711
aF7.735928422051688
aF7.292543064852311
aF7.814796946448933
aF7.714791284587952
aF7.737376149969858
aF7.292035684015313
aF9.631542081142062
aF6.702841586832986
aF9.588437595528386
aF9.270428266728876
aF10.1341585361418
aF9.319937743592394
aF10.851430623379533
aF9.177292271767387
aF10.134123107501312
aF9.319556052195152
aF9.522161742644727
aF5.597343656505153
aF6.736373287377948
aF8.009208190918821
aF5.567591525501262
aF10.276879180685274
aF0.4614626993952761
aF5.014192763722998
aF11.170111907622033
aF5.027980805490972
aF43.17963043720199
aF28.65512934985344
aF24.787106993908186
aF22.749316299030326
aF20.72260463647091
aF20.092047568341968
aF19.079753779746987
aF18.567087837778832
aF17.03033347746801
aF15.671069734324865
aF10.86027238731983
aF10.306877038103657
aF9.29704694673108
aF8.890706908490055
aF8.864604621089967
aF8.270230036629759
aF7.922898628464364
aF7.8331863839699505
aF7.733224038207981
aF7.2778219052743305
aF7.2635345782034735
aF7.175273771397836
aF7.048978573703681
aF6.947575659378567
aF6.9422242999296655
aF6.936290824496663
aF6.727891336601164
aF6.691639375482628
aF6.45665531478228
aF6.262517164681345
aF6.175873461007737
aF5.959220030076088
aF5.778662537107334
aF5.712399833139689
aF5.68610944778192
aF5.6089867964653335
aF5.589948638877052
aF5.369483623925578
aF5.3567296565007565
aF5.3477036371553055
aF5.323508235203887
aF5.174793087660564
aF5.126794711207669
aF5.021454971656288
aF4.933047706566998
aF4.927722475019848
aF4.867089213359332
aF4.791848147295108
aF4.7761525347149005
aF4.761131759065057
aF4.567692350431828
aF4.524009930880894
aF4.4565151256867015
aF13.245093309202945
aF6.582129411237309
aF4.788272751877313
aF12.787301431807153
aF5.407725939402021
aF5.3376881003574645
aF4.2449687344687765
aF5.238246156625699
aF8.875146422226404
aF6.307110394546182
aF5.148196673817962
aF5.321304718060909
aF5.48260119340889
aF5.502400535140628
aF4.690490614185987
aF6.782999997738861
aF8.061436269676719
aF5.235174635078403
aF1.1570566945121754
aF5.086196351120956
aF10.209303047943312
aF5.592412044140786
aF8.591479129393651
aF-0.8739989924495801
aF12.98015145959786
aF10.357027619708136
aF8.888682464017277
aF8.182168030627299
aF7.70458466080986
aF6.968695888005483
aF6.1744960508600215
aF5.8246322930685315
aF5.694450911379389
aF5.6393647582113
aF5.621081787268027
aF5.561651581991825
aF4.868656404296701
aF2.4489617391674248
aF2.3068066910206717
aF0.058977297182422575
aF-0.8381439730031348
aF-0.9506537945348298
aF-1.3725662833096042
aF30.270428757458486
aF7.0234246103177895
aF-0.2937737734243898
aF5.3867078212726005
aF5.212021186475175
aF8.34122554643168
aF6.84225189996483
aF5.537663945619557
aF5.484938012851769
aF5.3117700048689915
aF9.76500876321466
aF7.59198026964957
aF6.129550375394618
aF5.734065683259796
aF4.136049567017899
aF13.65254550116911
aF10.294582480637514
aF8.733011334625411
aF8.43528277036026
aF7.929448167578764
aF7.696951231981938
aF6.632998443736518
aF5.73044146118606
aF5.412848927948336
aF5.344270321289152
aF5.3293298962493285
aF5.261539419757892
aF5.164626572668251
aF4.305636675597114
aF19.234965405446587
aF14.52064203430973
aF12.68672675359542
aF12.459590229389178
aF11.660756226497796
aF11.272255535425144
aF11.195974112668624
aF11.180531063850813
aF11.078421588131382
aF10.883008343584152
aF10.650493618199778
aF9.321271000952919
aF9.196171606723508
aF8.709186245547746
aF8.678938147432032
aF8.449244822193648
aF8.168718224600022
aF8.061552726014838
aF7.563940976299768
aF7.5527340038399835
aF7.137950601185781
aF7.090187493056178
aF6.761425420051143
aF6.714121689936764
aF6.699801708032023
aF6.2299255961724285
aF6.203295265148124
aF6.044371669259218
aF5.7895986762102485
aF5.756145479797731
aF5.694147387539225
aF5.5986610125887735
aF5.572600959915016
aF5.524050679322661
aF5.486143220221439
aF5.480821973260891
aF5.43886614551087
aF5.42827091250074
aF5.411139799402193
aF5.368507384946309
aF5.294831947763264
aF5.288877350861521
aF5.27423138695807
aF5.080168633548516
aF4.840552612365567
aF4.754642196255678
aF4.741586330287553
aF4.529511483084657
aF3.577643402762816
aF0.07385508569497043
aF-0.016855042602869717
aF-0.4547960990375757
aF-0.9432763127291944
aF63.26595486150993
aF21.739579199626583
aF17.310701971713762
aF16.498780037267387
aF16.382733369667818
aF15.961325064179833
aF14.284720010005113
aF14.033323185256386
aF13.615048274332988
aF12.60336749693661
aF12.458568693160892
aF12.167300276074927
aF11.945162625434506
aF11.893752190929638
aF11.676178018472614
aF11.469079892064538
aF11.465405749967418
aF11.139402273497945
aF9.934519471640439
aF9.463764301498683
aF9.030745394425011
aF8.905844814041798
aF8.74935957757061
aF8.683850205200677
aF8.383597405901467
aF8.380095277844918
aF8.344019634327037
aF8.292399960273999
aF8.204683995061853
aF8.106531150271662
aF8.076608550122039
aF8.076173506142649
aF8.040020974711735
aF7.999627472477847
aF7.726342050176481
aF7.676113409053222
aF7.658124466793147
aF7.520594276079426
aF7.450561242432465
aF7.3955666623598315
aF7.083241923486682
aF6.958145498534211
aF6.814292881188508
aF6.738463070197589
aF6.590061813704778
aF6.46188423297162
aF6.405279782490277
aF6.404431582008249
aF6.333560837536527
aF6.322001712513847
aF6.20824562407388
aF6.157447440407673
aF6.042729677102507
aF5.990919250566713
aF5.976126680487622
aF5.933348516962394
aF5.93014840371655
aF5.9038005535063975
aF5.867273414127622
aF5.866384437031376
aF5.83610994298324
aF5.8341083133507325
aF5.764696186816914
aF5.738719330159581
aF5.73836024712856
aF5.70601580548878
aF5.699606499571298
aF5.6858467471217
aF5.599213737509861
aF5.597118394214191
aF5.51521175516578
aF5.468260256707167
aF5.4222192872258725
aF5.348538053811422
aF5.327553015289936
aF5.2362890906606605
aF5.215023568213281
aF5.201316414278521
aF5.181278033770068
aF5.151470138705343
aF5.140703823872066
aF5.122930871429265
aF5.090226076381037
aF5.065487357225738
aF4.8560225073232965
aF-0.3914311573766588
aF-0.4248589259860489
aF-0.6268130586623626
aF-0.731142225243268
aF-0.7561120698766735
aF-0.902851608262487
aF-1.0431024930432744
aF-1.4704183635114851
aF-1.8920236049317625
aF-2.8332385920677066
aF-3.1820429178483827
aF-3.639077822749423
aF105.48498900650482
aF36.141792835314064
aF28.26684195490715
aF27.06688254302557
aF26.74308817230245
aF24.338405862177858
aF23.007733410165372
aF22.158185803132945
aF21.328260970933822
aF20.755005302019146
aF20.724460931180726
aF19.91415216569095
aF19.466957298250087
aF19.003562445751147
aF18.758100677949862
aF18.600044592746183
aF18.51888299589933
aF18.30893264619503
aF18.20649183697862
aF18.147156520056267
aF17.945656815629388
aF17.62058552889339
aF16.086291902238386
aF15.612620255684796
aF14.109465249756019
aF13.356325282204175
aF13.28210291963796
aF13.132123701281635
aF12.752768189031535
aF12.691802873281395
aF12.607016252991194
aF12.499479108738976
aF12.295832485093696
aF12.182863909362107
aF12.117730506265024
aF12.095972928574124
aF11.970258920962902
aF11.876402527981027
aF11.735497294619355
aF11.734258824718733
aF10.969294952757362
aF10.271400018576985
aF10.108501512147617
aF9.84319030336532
aF9.606875745085283
aF9.49626976839092
aF9.468169345777824
aF9.417902360638584
aF9.29186082189645
aF9.24518828052663
aF9.149355542665267
aF9.102873832331555
aF8.974547602993871
aF8.792451418370314
aF8.549693192292349
aF8.416577331980346
aF8.387524182160288
aF8.380858357246929
aF8.294479367566057
aF8.288354702262739
aF8.23607334165251
aF8.163362914014101
aF8.120619717992376
aF7.916893928096722
aF7.732746449679017
aF7.656150999031437
aF7.598601779168884
aF7.5427213475892865
aF7.470444386280309
aF7.378960619880535
aF7.363347886129942
aF7.269242270492892
aF7.160183105512906
aF7.112429241044707
aF7.078646718577545
aF6.8089841692907696
aF6.573929452133439
aF6.505487450555139
aF6.457469516055691
aF6.4145410792046675
aF6.330020344465913
aF6.226309405088439
aF6.214989757029189
aF6.2021792463896235
aF6.073425204445098
aF5.990964028644129
aF5.975711422228968
aF5.879968976015798
aF5.8074359944853065
aF5.761575076328947
aF5.6876829956743125
aF5.593258550318628
aF5.579989384352914
aF5.578109618437547
aF5.560797042107604
aF5.490155956006347
aF5.448422384532778
aF5.4315611635026615
aF5.3475890302231015
aF5.306294658606075
aF5.258139897570231
aF5.231049278589631
aF5.1979065444321595
aF5.1362234147718695
aF5.092889077002808
aF5.0094926802103155
aF4.877189895016461
aF0.1971962897524145
aF-0.024844192497125384
aF-0.041979931651581925
aF-0.584246291623855
aF-0.7094757396242505
aF-0.88544440787248
aF-0.8923102422092507
aF-0.9457805477215029
aF-1.0488092860138198
aF-1.1860468410703775
aF-1.2878037937379987
aF-1.3534234546796036
aF-1.6414754385921635
aF-1.7129162320009164
aF-1.7989615828407997
aF-1.9336821917459228
aF-1.9456251740613264
aF-1.948044749793311
aF-2.098090161502567
aF-2.1155299050899643
aF-2.1404116656126417
aF-2.197504255713421
aF-2.775525273449732
aF-2.8261525210151643
aF-3.0392575502894434
aF-3.1830724824590386
aF-3.220643746083392
aF-5.265432808208209
aF78.73148102791684
aF39.01743601711585
aF38.39302649274897
aF35.03911232383645
aF33.98957515232296
aF33.70549774546999
aF32.28660174319585
aF32.06488031889563
aF31.786095827468408
aF31.50938425117207
aF31.426228898222803
aF31.154882484636477
aF31.041026196066536
aF30.974186899059085
aF26.79509990511093
aF25.91699916487956
aF21.20142902808329
aF20.75392890795686
aF20.231650301684336
aF20.08310713451683
aF19.730382886427115
aF19.258112161792727
aF19.185966911442076
aF18.982176025883398
aF18.91137871633781
aF18.665996641084252
aF18.61761655615601
aF18.11513404500123
aF17.76134939170683
aF17.140353991823773
aF17.085291425753933
aF17.06173861041806
aF16.164882473739766
aF15.882870267640302
aF15.861763122237095
aF15.44741729749591
aF15.18309178609739
aF14.668354312344107
aF14.610633178650716
aF14.486671263550072
aF14.13072205541678
aF13.851001989730086
aF13.645326914396618
aF13.626355960631075
aF13.342014379513927
aF13.174544771340035
aF12.598053095111025
aF11.842530849900982
aF11.721136791962055
aF11.578082116457415
aF11.413268317592511
aF11.138111056791361
aF10.941670364225669
aF10.813634723950408
aF10.808941201512912
aF10.593048964093269
aF10.448861989918322
aF10.01539428691854
aF9.715408959780543
aF9.684970474104613
aF9.652621853816157
aF9.507037639163986
aF9.298319035139665
aF9.2608865898118
aF9.253191909561776
aF9.176330611197127
aF9.122338882773676
aF8.849065239069038
aF8.518114033184133
aF8.033555075389147
aF7.906894681418411
aF7.798214112091844
aF7.647966596400581
aF7.606323059412987
aF7.460290880204537
aF7.420541275435648
aF7.272919992310642
aF7.228266830734407
aF7.087821354474793
aF6.692523218237651
aF6.634503587424447
aF6.55511662150279
aF6.541799944153122
aF6.505664578254456
aF6.466679201766598
aF6.4608057596966635
aF6.453814819594874
aF6.33374753113816
aF6.06848640116396
aF6.042779145464423
aF5.976291691963726
aF5.9555971880487775
aF5.788932074475743
aF5.7036287641124535
aF5.675352627552417
aF5.596395160723588
aF5.587271793848584
aF5.528468601538386
aF5.467649988033464
aF5.451084815330009
aF5.430234024477642
aF5.401394238795786
aF5.399987163195429
aF5.227171408340914
aF5.207635614195402
aF5.1717754380065255
aF5.10112886827541
aF5.079779004511655
aF5.054799376262389
aF5.016430306813459
aF4.8397321863558815
aF4.588248116180991
aF4.149073546892786
aF4.042573651865436
aF1.8038101233203518
aF0.5369467144958711
aF0.16430241218234948
aF-0.049417470770993364
aF-0.24125142260705745
aF-0.32868829979693903
aF-0.4459811146551845
aF-0.6891107652972341
aF-0.7084806649887548
aF-0.8069687105848793
aF-0.8294282200470282
aF-0.9642047452681384
aF-1.0243279205478744
aF-1.1644690773114548
aF-1.210120832190086
aF-1.3000217736182142
aF-1.4484539293712784
aF-1.7184405139289023
aF-1.7740683611305552
aF-2.161375140619192
aF-2.183880578269597
aF-2.1963650363584746
aF-2.2122344573710206
aF-2.3562666667932723
aF-2.448561695764368
aF-2.5332841406808364
aF-2.560950366603556
aF-2.6932389863394155
aF-2.7011326749167854
aF-2.8235101518643475
aF-2.8283698888943154
aF-2.8992702199861213
aF-2.940573234645258
aF-2.967776698602535
aF-3.0072851093986577
aF-3.1279530830547633
aF-3.342672329239543
aF-3.4144945173169905
aF-3.4931377136560497
aF-3.741980220370501
aF-5.828352891953223
aF-6.735337847937234
aF5.3988201646050165
aF12.367691563516905
aF29.799208939461092
aF5.675026647121639
aF5.233402713525388
aF17.650422528740695
aF309.36172321523935
aF174.62568423935298
aF91.83279223044269
aF73.4183690774716
aF60.08595594110471
aF58.02735040900793
aF47.70261447977784
aF43.74849437228993
aF43.29916721482235
aF32.52953214521126
aF27.902367793469157
aF25.768185244397603
aF23.253956196199788
aF17.23633847243565
aF16.724239538914624
aF15.670943500172386
aF15.098757462573626
aF13.892932669251199
aF13.265824142020069
aF12.945351658265574
aF11.852438237093553
aF11.620094681384465
aF7.914444013463478
aF7.106247366300014
aF6.693896823963391
aF6.375129414081892
aF5.605818881553386
aF5.338472730119
aF5.295850142192215
aF5.237777576436278
aF2.7740855318603472
aF6.0953229562680695
aF5.023649045319253
aF5.051756222228877
aF6.0953229562680695
aF5.023649045319253
aF6.424695387754777
aF5.447530683400658
as.