(dp0
S'ma'
p1
(lp2
F62.492647103312855
aF39.66269819090757
aF81.10844715886313
aF29.25745626886115
aF11.06714313074675
aF7.778436510473242
aF7.537581896464588
aF4.958153995624748
aF38.647297418797095
aF7.196801977934361
aF5.4466887028951705
aF3.855650485946111
aF271.07622180033644
aF19.954382781834344
aF14.778991511507588
aF14.867879258036574
aF15.572736383121702
aF7.907759772776026
aF6.762723642464946
aF5.050782554438974
aF5.642967759976848
aF7.292730119440169
aF403.14724415729904
aF852.7551037126149
aF40.64296193941772
aF5.6748039547700655
aF32.894302914592785
aF6.846595896254266
aF6.95563724006863
aF50.5971442144415
aF18.471443352852518
aF17.883281305267197
aF83.88505669446339
aF109.94291373980886
aF42.49751465883397
aF29.18653736288435
aF6.597052133910531
aF6.984587058974202
aF5.419826990566853
aF17.496115013933274
aF18.010180826680244
aF13.51138009055652
aF29.958367708145524
aF64.50910317460671
aF13.34767934324611
aF12.312561478108368
aF18.047649057953397
aF42.971258907512436
aF224.03188143111907
aF15.247934812001198
aF62.996917839445466
aF32.219313709057744
aF6.915756559271557
aF13.647238185959385
aF86.1769513591876
aF226.6877044855661
aF435.3852461011357
aF11.611070843059485
aF21.63073713909798
aF59.98996098266985
aF12.522768640546081
aF49.15332411964686
aF9.492355022077113
aF9.196083461294496
aF23.95027635639317
aF24.913094129987048
aF37.420439784172466
aF54.629822782743815
aF79.13544443375176
aF15.806313229111971
aF113.75468903145166
aF19.637824916253955
aF13.585267129507198
aF38.95754980125951
aF31.430261218455577
aF5.3596983187887535
aF15.766654208962596
aF18.13612965763833
aF38.35692586638066
aF47.2047097663061
aF9.309637672875008
aF8.270610543764931
aF20.67815881016168
aF124.28011421456884
aF49.83438946352469
aF245.0992657777176
aF24.138946482591763
aF22.29423092954213
aF14.547546448353712
aF39.44480495080332
aF71.21975964561979
aF7.265568200805607
aF5.707413165651322
aF66.52892407322139
aF49.60210329391592
aF209.2161710532001
aF28.851849778167963
aF33.70844556950923
aF14.655321686074931
aF6.119770557237658
aF148.83606198188434
aF7.8373143125527935
aF9.357805998766317
aF14.09828538278574
aF52.520462243030174
aF88.35000878919729
aF25.819844729035058
aF10.673307548108042
aF5.917153722076228
aF106.19008149041152
aF10.295443196857887
aF7.646629118602277
aF8.298838705897548
aF18.006833481302504
aF52.15487391658667
aF12.779695539522152
aF18.897760197151026
aF75.87837797341996
aF5.6088416432150305
aF25.27161470426396
aF16.457697177324842
aF5.395532808210001
aF8.183919921697134
aF8.124140840262086
aF20.94284999945892
aF24.587717107818843
aF33.44434726872724
aF8.617233378860982
aF362.39347980689683
aF14.222886530736544
aF7.719843876142678
aF11.688634513406775
aF15.994972897878075
aF15.727195431686836
aF47.574500777778596
aF31.69952417796328
aF15.480794656192831
aF54.23004996558723
aF104.96261927425226
aF17.394729110063324
aF83.30627056748698
aF20.844652764293826
aF13.118519101010197
aF12.716881904924286
aF51.89605483322684
aF7.145777170306535
aF5.645499228048147
aF5.111943315151397
aF150.57013500909034
aF8.228157059209613
aF42.820882303322016
aF24.92593983959176
aF10.276901132664
aF36.6691217157005
aF14.9173287379968
aF29.264919695377717
aF74.5157350311376
aF27.259172148845803
aF54.70310449335484
aF18.3106104009445
aF41.420836751102364
aF11.647749632704285
aF9.12168255365297
aF56.89975548288472
aF8.42936225002275
aF14.09885922774066
aF22.87148320933353
aF71.02415325644274
aF71.96372867392444
aF50.17619716730916
aF20.64793250856124
aF45.400753866747074
aF45.78884177027915
aF29.06247444406966
aF7.8164762016369105
aF44.75461213122304
aF20.95340823347825
aF24.510853004559998
aF11.973537218521695
aF105.93564391802109
aF397.96812665672974
aF13.711109801680536
aF6.844915491739706
aF5.387325082374244
aF43.195612176768826
aF14.021717234462672
aF12.361341811510545
aF91.94273070164637
aF23.76231132186671
aF36.76878496306635
aF57.357148130257606
aF15.724716043940886
aF5.622597221427507
aF13.70215168754135
aF6.802262019673555
aF139.9090250748088
aF11.452047193733652
aF19.832353851106035
aF16.555143265145777
aF21.20165645178548
aF21.71504730765094
aF57.20099639079426
aF134.03306740435022
aF63.351594154665754
aF39.32021672846029
aF9.524556422674909
aF9.177694290363693
aF15.342914926554991
aF5.256093684115067
aF46.9850636259385
aF50.32792391832236
aF21.86649929969136
aF34.764168894989204
aF20.34252692537407
aF48.27956005653129
aF146.702509978807
aF111.59252651972672
aF12.863992481153279
aF6.0409237450035
aF13.697847405316393
aF38.59596225976992
aF16.95656119744118
aF17.27963955638018
aF8.354084255983707
aF10.311227400744718
aF42.82385426749718
aF329.0320148416509
aF119.12166675435577
aF6.848820838686553
aF18.89783139596935
aF82.30099476203394
aF5.8914528880558334
aF15.299598325873143
aF10.9828284229129
aF25.21726059960726
aF5.6873031552374025
aF5.5160115256731235
aF392.6095932627425
aF89.04902306306629
aF68.57003456221076
aF50.53716950426794
aF12.575201632969847
aF8.201931541673861
aF8.02691124740199
aF7.8921288783495465
aF6.891301127922151
aF5.002612742878654
aF9.099464176967029
aF10.899978041730705
aF5.960643147980735
aF5.516360687330549
aF4.725766839643166
aF6.054556623961812
aF7.823775159412516
aF5.639092334826655
aF5.008318104183908
aF5.863987847021941
aF6.307260834748332
aF5.012397297351316
aF5.456008991045987
aF6.238764506643522
aF5.607334116268705
aF6.089789060227635
aF109.337117768666
aF55.67631916662635
aF32.55243627548237
aF16.81466609904453
aF16.830046077372113
aF15.568818330749641
aF13.199704021923244
aF11.0868591169624
aF11.727311049325856
aF9.98621531880582
aF9.463882478954812
aF8.56027188616996
aF8.182997985277076
aF6.178385453458643
aF6.960074940085156
aF6.891308512896638
aF7.73447040808851
aF5.153810680955078
aF5.084884721503991
aF6.314700745181548
aF6.338440930061588
aF5.314309488408153
aF12.306566900672793
aF6.502066266486413
aF14.50434486843992
aF9.122179943435734
aF5.000510690669397
aF11.403977553630126
aF42.586821803764686
aF9.556319205137028
aF6.659829989823441
aF145.35342995234242
aF143.06774842833937
aF41.83045838396747
aF34.39639240520735
aF37.38286734257839
aF14.322170446323993
aF12.701533887247505
aF10.229429411657387
aF10.124813769698298
aF10.05674115300154
aF8.957772843452837
aF6.8107407437062815
aF7.371218496711023
aF6.462961630790758
aF6.433112732436818
aF5.39632118787696
aF5.1150301846915545
aF6.264640809966371
aF13.910775696794774
aF14.660903398795627
aF23.98211470294382
aF6.0154882838619805
aF5.413118165233377
aF131.0743400755554
aF59.28735637668075
aF12.903935243545728
aF10.388769248058717
aF7.950612963256205
aF68.55827761403093
aF21.658268139430614
aF53.496413340798206
aF14.658870666003413
aF10.387124969915622
aF14.776001349735234
aF121.54725039496618
aF7.8369904799995584
aF57.893318098580295
aF58.61554033869083
aF32.586342096699525
aF5.458655860562371
aF7.950994998861415
aF81.82523618522475
aF55.92664084017791
aF109.57815021895391
aF16.1966082017561
aF11.56767886431705
aF13.664941343924644
aF9.922913753499246
aF24.670766638037843
aF38.17732192264887
aF5.885034213257875
aF13.430983648531393
aF48.867978145804386
aF9.882535326693398
aF36.88474860138203
aF11.358654860645206
aF60.12866073928121
aF60.4001936714988
aF15.161963403128507
aF5.884236713812287
aF64.32570200590605
aF21.813101587124788
aF6.883485678058982
aF5.598826213757342
aF8.390409980937578
aF13.455050014370515
aF124.28222416318931
aF39.82484649321333
aF5.8935247289847625
aF17.015657678203596
aF97.33966774610485
aF8.879073566138524
aF6.003470309217337
aF18.844598614188406
aF22.2270631919096
aF31.35242494152748
aF170.8293699456606
aF13.412622857720015
aF9.588483809146334
aF16.769214428251136
aF5.646931936780253
aF50.03264448641614
aF16.837123915147117
aF14.08449485647524
aF11.318599929405279
aF28.870798359533282
aF21.596900592577967
aF25.78318595180743
aF73.28150175479674
aF40.456718647261
aF6.147531805610738
aF6.505280405642111
aF14.869188619241624
aF21.472511787353433
aF5.455077363994008
aF70.42074163360256
aF16.302275831802813
aF20.98824118725586
aF14.43655327484992
aF8.399236013647485
aF7.683691232309438
aF6.3518232339472105
aF15.903672222013734
aF22.378566890293122
aF14.140197691909034
aF11.194940632384748
aF14.338234075278894
aF11.334339576484899
aF7.892220415898343
aF6.424004179289536
aF6.330515233073772
aF6.912127668006831
aF16.130856968900982
aF26.825096785248043
aF16.1461093500515
aF52.689764251319936
aF5.688021795627768
aF72.76239990637059
aF6.769645594716472
aF27.569331121439294
aF22.1056193535501
aF6.276573346582762
aF40.074033365895296
aF10.167262021706364
aF6.497488695753793
aF17.868004259477136
aF10.058242796318703
aF17.321223191852877
aF6.350894365875303
aF6.802557840031674
aF72.5371234076917
aF25.797628766882355
aF13.224824171524975
aF10.759294035603373
aF55.415059487972215
aF27.88467945432057
aF10.49030187892632
aF5.103114193992392
aF8.402886912070631
aF5.766212456167084
aF10.459171414904024
aF5.4765413114738895
aF8.632751630067652
aF5.106510245589732
aF3.99497893019062
aF7.511228448893488
aF6.756561728985911
aF4.923199135743729
aF5.972600765458911
aF10.995950460336015
aF8.848389456334491
aF6.855645578963119
aF6.366815561032512
aF4.869309226430361
aF18.02047403414275
aF6.006082818785722
aF21.57224419908484
aF10.053176579026047
aF8.77856306773573
aF5.781473688044659
aF9.672644402911745
aF4.595706016312706
aF6.189876670527984
aF11.963158712869737
aF5.079418120949518
aF6.370786480724339
aF13.819034200572457
aF9.467378896427231
aF9.335237796764432
aF4.349870839009698
aF32.18744019222231
aF27.571007328438476
aF22.935450573132016
aF6.341668685837889
aF2.309789666829651
aF-8.619285345576117
aF6.467054896513023
aF5.698493808237357
aF4.868669474958598
aF4.5467688819620005
aF13.365549026372031
aF7.717121777965096
aF17.132249929155794
aF11.70857292056036
aF49.50748948912607
aF45.47312101521782
aF43.49427141870531
aF17.034184445397283
aF10.932780516421237
aF8.100197272225687
aF9.455587211269457
aF7.306459040779827
aF6.568643261675488
aF5.732226126464809
aF4.5992956455054035
aF1.8047633867724076
aF5.4026864516961774
aF31.92271869965353
aF20.836481489772165
aF17.844157675967097
aF16.06768712458987
aF16.386000918221743
aF11.042851142153356
aF9.484506625672068
aF9.282885078677994
aF8.460596845832866
aF5.863936913548237
aF6.297128077912407
aF5.988175604750991
aF6.505686062077807
aF5.1277327879580215
aF5.017135207756163
aF5.3560643778421415
aF5.1742089088853245
aF5.101413098991543
aF4.7481757622525285
aF5.1470423278710085
aF5.011130113091527
aF13.111025998233107
aF11.451560093741369
aF6.528670743250599
aF12.958207757570493
aF8.836801455340181
aF6.456194564320115
aF5.777858272665554
aF11.77672478188532
aF10.539015642785424
aF6.730360105599256
aF6.8112697062332535
aF4.992867374819713
aF5.4392488789517985
aF7.663262590850186
aF5.574309914738368
aF5.3783656201959165
aF5.6790643038887865
aF28.969189054100198
aF31.22627590620627
aF37.09999751824285
aF29.95313459453101
aF28.75574068636693
aF28.57393466991101
aF29.042124270562844
aF23.79615737409492
aF19.86879872348629
aF17.530139644143723
aF18.80280130357275
aF18.36537009952046
aF16.563445230927147
aF17.263208891839742
aF17.079004547571152
aF16.284650615618634
aF15.708674260545369
aF15.183712252152358
aF16.095191254367194
aF15.7634290013903
aF14.81195102805549
aF13.884320897244676
aF13.659595600274216
aF12.997641132186196
aF11.651959328469296
aF12.616376147139075
aF12.178847937565935
aF12.264600614154613
aF11.673512687662468
aF12.211447125121147
aF11.961912384880776
aF11.903496214866307
aF11.880965178028946
aF11.696056291614154
aF10.291661652790102
aF11.656795381965829
aF11.592807168095508
aF11.424834616017106
aF11.444493095358565
aF9.299154854841275
aF10.535786044302066
aF8.413244929307682
aF10.835887810521298
aF6.2779000750434015
aF10.093170988417086
aF9.922517499519461
aF9.992883463156438
aF8.276063114186504
aF9.396373617815694
aF8.352776118612558
aF9.025831956053999
aF9.51381803801554
aF8.838055128160574
aF8.966133825834524
aF9.134702343686275
aF8.077461694636536
aF8.75887478688383
aF8.472195070732841
aF7.784187639407536
aF22.199651915889827
aF5.416659354055182
aF6.4426709770793344
aF7.297310512084343
aF5.888424876424723
aF7.536350203136348
aF7.139631880169508
aF8.218242037207434
aF7.669206114750654
aF7.346661302108628
aF8.032436932926908
aF8.092785320126872
aF6.348644390230921
aF7.616571501818037
aF7.491458532606296
aF4.345670096616683
aF7.494518307755227
aF6.961607879549639
aF6.953913343590004
aF6.44600879345394
aF5.204478973294429
aF1.5704830386522886
aF6.8207274134026425
aF6.751680330560733
aF6.342121765804518
aF3.1903569780711
aF6.418890983229472
aF5.422265525621711
aF4.641755207892103
aF5.856051296920112
aF5.6146220379959715
aF4.856055579658396
aF5.785492048550617
aF4.8496527820655855
aF5.373555404528947
aF5.552571626027044
aF5.669344805925102
aF5.4846098582878
aF4.9201216116876445
aF4.3477949830039355
aF4.120705854703664
aF3.95904771938996
aF4.719640422909687
aF5.193316951799035
aF5.6501359515419765
aF4.039461219097413
aF5.22012509828933
aF5.210413483298479
aF5.1678170059283355
aF4.747865218240049
aF6.55643929060256
aF3.3262027266374155
aF13.49279553390962
aF7.959218768917013
aF5.30165979016767
aF14.339570757695045
aF6.143741023522501
aF11.533643583997481
aF8.154741923616912
aF6.490734820128098
aF9.315191264049163
aF7.631352204189799
aF6.5165218335691915
aF5.524989877880709
aF20.9418190365576
aF19.88417714050106
aF19.658270666408765
aF16.97737585095711
aF13.293080758928678
aF27.401592547352447
aF70.46295371522291
aF177.48217875053533
aF6.696527929574502
aF15.380182153322412
aF564.6159193095813
aF1380.475639825429
aF31.222159634821587
aF15.875639226381429
aF9.042210934079336
aF9.063679395628006
aF6.536367089157977
aF96978.48942813203
aF8.933887476177826
aF8.932089796790919
aF9.136082066857972
aF8.928747361039614
aF8.927829010265976
aF8.935915088218223
aF24.04304270772153
aF8.923809428331491
aF21.22903210411897
aF17.046651165457348
aF21.127279098531343
aF25.13189891030775
aF7.55206518089247
aF18.933410665935327
aF16.605511329371993
aF10.600136754470547
aF8.893878882234034
aF7.02305057547572
aF27.96104125402553
aF15.5368485853476
aF8.332769773754261
aF24.99107428969335
aF5.473647523153908
aF6.2576435824698455
aF12.416261998943694
aF5.394877380441078
aF5.262162848762117
aF5.204523350768016
aF5.279646520153069
aF5.014279948686831
aF2.232689072979872
aF6.455244169055404
aF10.564550169189904
aF5.722058456027996
aF3.686557158182626
aF2.8151142475683644
aF5.332695632175888
aF17.92882724142926
aF86.73915754846071
aF7.087262763112896
aF17.151413488094633
aF17.518888437674676
aF171.4567210100731
aF20.153299591959428
aF52.409995731668126
aF12.300717464393125
aF5.607190214515761
aF5.175065973469284
aF5.013104508764209
aF5.146890519017458
aF26.10994980987661
aF18.938108897358386
aF12.161308213876172
aF6.341332068053135
aF5.718844657480129
aF6.217174428415017
aF5.648917095796177
aF4.472068221500969
aF3.087981618022676
aF5.749784333328597
aF3.599390139632547
aF5.698279395071765
aF5.364087620447674
aF5.452045463775948
aF25.301308311379536
aF18.764358557066814
aF11.921508096253367
aF6.222242921713259
aF6.326709772278215
aF5.535547613111429
aF5.801384354931242
aF4.4379171024149
aF3.7537883175796463
aF5.773847766353637
aF2.7629232025965043
aF5.485905152315412
aF5.31209630160956
aF5.442595450384713
aF23.152055922176466
aF15.589644167707885
aF10.968327471944296
aF5.356794818924271
aF4.965850835617129
aF6.111954592539787
aF5.317929646019102
aF5.182297349457571
aF2.809140883250749
aF5.563588509196191
aF10.28745019196617
aF10.173366381820742
aF5.665514463781239
aF6.27826824763798
aF5.3243290766187
aF5.913048960736088
aF0.606224686027294
aF2.7191119475431096
aF5.8344912438643695
aF6.355224152671082
aF5.002517855049267
aF13.073877345438149
aF7.834722921509272
aF5.091104734667102
aF-7.179268411158322
aF5.061296357157542
aF12.552521247061259
aF8.622722652011168
aF4.960489203410117
aF10.766575762312288
aF7.0601115608241365
aF6.878383371318691
aF7.759358553049258
aF6.731564992924428
aF3.708530316078488
aF6.588235991880143
aF6.630665923873511
aF5.987769325235575
aF4.0569140847583265
aF6.270172419918226
aF5.267175285509848
aF6.270345334089451
aF5.171686593500883
aF8.861292656265944
aF0.9425822681917572
aF6.668961294646532
aF5.113986660079787
aF6.846390141252549
aF7.173803327332339
aF4.990607268009773
aF4.178708242569268
aF5.7638057447782485
aF5.7082466438708295
aF5.562339965956745
aF5.185737419949575
aF17.83950201604663
aF14.448256596155415
aF12.285265119724551
aF8.354358677335782
aF5.7617525632044355
aF5.672310326518347
aF4.661312814727448
aF4.586167936831869
aF18.108973737258424
aF14.369993612113953
aF11.859363458306909
aF8.496560727333803
aF5.7016383555289485
aF5.663115380940154
aF4.569248733907071
aF18.66672717267202
aF15.102784516919055
aF11.813803787814749
aF6.582742729524461
aF6.4401391180987035
aF4.586704402216077
aF5.396332035577488
aF18.925086554692765
aF15.1769367504531
aF11.985383463621506
aF6.746895842300779
aF6.42801698405875
aF4.564361222456128
aF5.256560048955016
aF22.96286465408857
aF14.372854150686374
aF9.983593262313756
aF6.61046868732216
aF6.338902648688498
aF6.5136656292363915
aF3.5292165443690724
aF3.0717487058964807
aF4.027896726017143
aF22.892516876790037
aF14.280120383861895
aF9.72620847065133
aF6.202454499153498
aF6.083877708659427
aF3.9241181967759737
aF4.6199921459873226
aF6.255957347612284
aF2.8995147343289123
aF5.1670410395770405
aF5.4295727060400445
aF21.076777406753337
aF14.986302312099696
aF9.593981650835877
aF6.2423280416480615
aF5.6955656043139165
aF2.988470411790469
aF4.3543328454292265
aF5.2077718615161315
aF21.473186883964363
aF15.24939815157984
aF8.977343581702543
aF6.798793408625397
aF5.352999230176156
aF3.0883760455006213
aF5.58234987274417
aF4.702689134688484
aF28.520679187087477
aF19.471587107218586
aF9.829708710118632
aF7.315873966056322
aF6.217997990741656
aF7.964993539209759
aF4.705259239506344
aF5.550799130244639
aF5.810773900764264
aF4.892368752138541
aF3.3840695107640424
aF3.1603027884950787
aF5.32853909328831
aF28.53162147872925
aF19.44957601931561
aF9.822977218325
aF7.262969091742974
aF8.011571956944067
aF6.055461653286751
aF4.507362836575937
aF5.4422291933559706
aF4.979090561008788
aF3.4273739095749884
aF5.415634748055361
aF3.1068760569032015
aF5.248460710564206
aF37.83767968599997
aF8.762693425896776
aF6.7433770943192775
aF8.095908854919232
aF6.731808136948023
aF4.073184832657664
aF7.863406979796141
aF6.8502769205567935
aF5.091832874105348
aF4.965184897640223
aF7.088590172678055
aF7.0814714251435
aF6.08262190428877
aF5.260034628233625
aF1.5948613752439464
aF4.171741722895899
aF4.894562970975309
aF5.493845739971262
aF4.8882517320372925
aF4.966487083435044
aF5.1782773055102655
aF5.2490504432106375
aF-2.5896228404135706
aF5.409671299393674
aF5.662236568369582
aF2.6694802772584163
aF2.9119716550370067
aF4.855763146750384
aF4.804432217211612
aF4.841649428510233
aF5.004914098114483
aF3.9373569122042187
aF2.8432537889396334
aF4.706212096579093
aF4.3503922730591364
aF4.830318641752791
aF3.865298620077682
aF4.547386925547481
aF4.774364578205968
aF4.035152128069258
aF4.721637186317407
aF5.779756615414853
aF5.120705536746781
aF5.243342203795881
aF5.299332880616777
aF5.028524785500046
aF5.435873759205246
aF5.458906049505073
aF5.527073812546133
aF5.213238463032728
aF5.070853915801405
aF5.189622621252564
aF5.953666669669489
aF6.360842936249731
aF4.3636945880497935
aF4.160495391919601
aF2.792225551913678
aF5.0339250343836675
aF-3.528253933138048
aF5.108076938509853
aF4.745624078425472
aF1.4256397962173943
aF8.04735576351905
aF-2.487487124553316
aF7.633179811490992
aF3.2211037599844667
aF6.271944653330964
aF6.29904054544309
aF5.373564418900921
aF2.2357128975296807
aF5.46549097494992
aF4.928537494094941
aF4.649133344175553
aF5.405020880405233
aF6.2584671920285775
aF7.340757699451562
aF58.4479510676407
aF55.70585683675149
aF43.84480028157952
aF26.29736856882555
aF20.818019956548262
aF14.797356488184027
aF12.08150423932563
aF12.565030265412394
aF11.264569724494503
aF10.856112676028431
aF1.7879058355718949
aF8.081982032311418
aF9.52444985432258
aF9.340375453544317
aF8.950280356565473
aF7.7150558671428096
aF7.1382576761487435
aF5.378628501733087
aF7.484518664532435
aF7.494805066106512
aF8.195259614085966
aF8.862161826942913
aF3.3790368198893423
aF7.56661785517695
aF6.406820867339263
aF8.062513607081765
aF1.7192535240091416
aF6.738620319212114
aF7.693243477659496
aF5.5929297962857465
aF6.305176538350862
aF4.4712417638540884
aF5.760203337949308
aF5.366850425286279
aF5.864431135269867
aF4.516767299945816
aF5.519152459303613
aF6.518795733318642
aF5.41651046873191
aF41.121255541959684
aF38.830858432132544
aF36.538110036442546
aF18.070812499728795
aF14.698258218963668
aF16.37410984953183
aF11.671081297539676
aF24.2689037752327
aF10.044303806173943
aF10.095599340047745
aF9.673468487414192
aF10.619834558678273
aF8.185102814769918
aF8.649063125302321
aF8.497950794932235
aF7.794749307971912
aF7.605179458104872
aF7.842446404329525
aF2.525674785908936
aF5.912463312748767
aF7.233533667442813
aF6.4974458403483295
aF4.847453056157562
aF5.634921143302081
aF5.446965250618545
aF5.068106102590632
aF5.7930196650547705
aF-2.669552406097296
aF3.290293981667416
aF5.049091490167457
aF5.128263660126309
aF59.16064973317173
aF56.187377807190074
aF51.86143068789196
aF32.375469274430664
aF21.49298345229275
aF14.869870931990324
aF21.535556389777245
aF9.245046688389987
aF9.788893558762313
aF5.173194789067861
aF8.864764508427596
aF8.392089755049737
aF8.504189307023905
aF8.051502182854017
aF8.574644252644196
aF6.7727910765023385
aF6.430500361637782
aF5.978142224081707
aF6.699244421560851
aF5.3853325381459785
aF5.5548678168601535
aF4.781070467737208
aF5.16271208314464
aF61.274912638985704
aF57.27372819096843
aF49.0960237588622
aF22.962589227877523
aF14.507410995505154
aF15.040834798274984
aF9.161707393842633
aF8.60726171196474
aF7.2092325958451005
aF6.131100354410279
aF3.6388580622765625
aF6.143723758274182
aF6.588446002868731
aF5.889954916218412
aF6.5005823115345525
aF8.977195903883304
aF4.894160405385852
aF4.983745451377659
aF62.21648317959897
aF39.99001121021129
aF33.18518278643785
aF34.94650911079901
aF18.908828077625863
aF16.313325436604448
aF17.206695122269593
aF11.740899268777769
aF9.020628162570988
aF11.529309465542765
aF7.735515236318631
aF8.074188333821677
aF8.83104302538178
aF5.534686031693858
aF6.98512936827496
aF6.83300846529936
aF6.752478197705335
aF7.72026597255788
aF6.1536875579305015
aF6.789776906560012
aF5.915087403281801
aF4.600088730552589
aF6.733539999300892
aF0.06045837212998285
aF6.273313343859183
aF5.306252077665793
aF5.584243205530379
aF5.30485042628812
aF3.7577325996842164
aF4.437041150168349
aF3.670929128114466
aF4.248001043108081
aF4.186122185057599
aF3.791981784758911
aF5.054729190237422
aF5.683329901350143
aF72.34843109971975
aF60.897723176740456
aF41.76622152538437
aF28.928945961181217
aF21.81688777896646
aF30.02911150944139
aF13.491087921490573
aF13.758432207645562
aF9.997984565606307
aF5.764883661011045
aF10.927475450745826
aF7.639490269404581
aF8.409322401574912
aF6.48754792659305
aF8.877857509859261
aF5.653213728090888
aF8.300070293216088
aF7.48629076903233
aF6.675866296212277
aF5.3301996279185335
aF7.671028265400351
aF7.258498770348315
aF6.89309246731074
aF6.687073301580819
aF6.569132588758991
aF6.764415926809001
aF5.814225596241517
aF5.832053111836678
aF5.850450971713477
aF6.259891619980853
aF6.180141487207693
aF5.580592940108313
aF3.9914423103478174
aF5.640046154985646
aF4.497752383417967
aF4.359667808939592
aF5.201118283031688
aF4.800444193026322
aF5.507176851512403
aF19.94518892013847
aF15.678382946610132
aF12.601681710992498
aF6.745711079004811
aF22.783415683371647
aF8.036449926746647
aF5.690780151112561
aF7.954138316443672
aF6.357664393166336
aF5.179507436908245
aF91.67569054167014
aF60.32739163248721
aF26.980711482322416
aF23.825663133153935
aF20.155199688242558
aF18.464230244492782
aF17.312812977874106
aF15.366781207625895
aF15.915637578573008
aF12.865819816399545
aF9.58420368105593
aF11.75880643560718
aF7.947483971032972
aF10.593912364343344
aF7.525343319452458
aF7.571599783395464
aF4.605761049883828
aF6.6013126892640805
aF15.140955955095
aF3.777356025859437
aF5.780041894778948
aF5.289915349384254
aF4.3329724164188095
aF0.6226056722075993
aF5.654166522022079
aF9.663393032976431
aF91.65354232918226
aF72.92575106197762
aF47.94247219631289
aF31.371242443632468
aF21.928794330489005
aF19.717737745823214
aF17.76280308595085
aF9.72047528580914
aF16.57230109555007
aF15.998992869824125
aF13.893425176948496
aF11.963193429914893
aF10.191731138605382
aF11.010573988864412
aF8.109323445352548
aF7.774302046921327
aF7.809538823378947
aF7.9130491235113185
aF8.007311504486447
aF6.838447362171003
aF7.05708689405993
aF4.4954526107464385
aF4.696155749682538
aF5.2341755925854505
aF5.526629572338269
aF3.3854222138062995
aF4.582359812664733
aF4.782307917940859
aF102.08661609780351
aF51.83195025109727
aF40.59904379531027
aF42.003304509824154
aF20.342833280590675
aF17.917279915254987
aF18.64027301882489
aF16.701248630816412
aF7.396735327395157
aF13.725923745441316
aF8.732305146385201
aF5.325243583583588
aF6.971473216142128
aF7.0748932427181455
aF5.062247542103143
aF5.914199476130669
aF5.2534545402660875
aF3.7602806735258723
aF5.386284989257829
aF4.839272565408243
aF4.48300102065451
aF5.376424539265847
aF134.2595680817903
aF85.35440639952981
aF79.22391777082173
aF55.647898859550885
aF47.63140085317995
aF27.266862520834692
aF22.687626094638638
aF21.476100807728766
aF19.59632111322605
aF17.71274764657278
aF19.188628324892534
aF17.444995389435448
aF15.0273349479404
aF13.700362040568724
aF12.27168457239253
aF11.753038668914987
aF7.155126548684291
aF10.03255325040571
aF9.002597320147117
aF9.676129425011029
aF8.021508323070643
aF9.133254632298504
aF8.558273546247253
aF8.991575760127743
aF10.019350631334753
aF8.806863877322414
aF7.934217574489324
aF7.4624482509702865
aF7.461269386876505
aF7.892207921930412
aF6.7017073279713975
aF6.702694060902119
aF7.870762102081865
aF5.7931986837766125
aF7.6480274180822
aF8.692450761612461
aF3.9923949971401087
aF6.050593898946223
aF5.2780757268659455
aF5.7211791756056485
aF4.850235814662328
aF-0.8211440205372863
aF4.137104860055751
aF4.9751516086506244
aF3.8614493372939216
aF4.478037843469127
aF10.343116231917255
aF334.3816373365337
aF48.57230557139189
aF32.34910282585589
aF21.884555019491263
aF19.242673424423078
aF17.812619830732388
aF14.43098109510666
aF12.89323341874367
aF8.614861081863292
aF10.711623638267906
aF9.565371382671993
aF9.990171444783336
aF9.787722677366485
aF9.452666905765454
aF7.342561094761279
aF8.025079201011902
aF7.418724866039686
aF5.653928727242953
aF5.906579036675741
aF4.86669520895316
aF4.269379339219802
aF5.921181519182018
aF4.376285650754521
aF5.5814110493072535
aF4.835532786017589
aF3.064492339853003
aF4.739629137104072
aF3.9513687590159936
aF4.334308471189543
aF5.678957500179968
aF6.62271160112767
aF18.006534305364596
aF22.55580040381588
aF19.506593449837172
aF20.0562870857396
aF17.78498781786137
aF17.922714764076513
aF17.434888585813408
aF18.535264002959046
aF15.742025299937188
aF13.786679939902037
aF10.37103321465504
aF10.277245840415066
aF7.246781439555575
aF5.52345698578954
aF7.470025675740255
aF7.302389997109856
aF5.716419665494037
aF6.111986777135058
aF6.609484090155318
aF4.699134785963087
aF5.26090825195358
aF5.070202741174974
aF4.753322821110904
aF1.1262295357821732
aF5.5775653929934785
aF486.77704753484085
aF39.12727509560509
aF16.73023504560033
aF15.575845194410935
aF14.585133045109725
aF15.209804266045582
aF11.993161837337494
aF12.098967769341204
aF8.429069229293258
aF9.797259428417124
aF9.005086738594441
aF9.821310359378456
aF7.868441313460419
aF7.1512223081869495
aF6.982944054056492
aF6.82957127709662
aF5.54539082253728
aF6.5222628651401555
aF6.842264031171872
aF4.106137196629996
aF5.60162229591448
aF5.9324077269200215
aF5.377884492351473
aF77.11949176316504
aF62.886881707333536
aF25.891227058891033
aF22.42761754901016
aF19.051135215451293
aF14.708351644176908
aF13.876439148477418
aF12.19741213021863
aF9.820693554791967
aF1.1409725559648451
aF8.17866428166179
aF5.833469818750133
aF5.78016977352512
aF0.26461540192139954
aF7.1075137606799785
aF5.318581108258366
aF5.403996000514479
aF5.334259438992339
aF5.425948165360613
aF1.5390625597924297
aF5.736954466657367
aF6.010093702258973
aF11.508655342213483
aF6.171799873785398
aF11.545343333227818
aF46.49236770212685
aF30.913940118383994
aF21.571360159473308
aF20.63222248176271
aF15.113725434412506
aF15.881839108794866
aF12.918597550595775
aF11.250701800822592
aF9.80546199851023
aF7.394562930364557
aF0.3108251111331793
aF24.077093878543426
aF19.41094774391809
aF12.709920736719049
aF11.609919877640223
aF11.031038302131298
aF3.2002339700575213
aF5.5766690550712665
aF9.618556551073016
aF12.464255591880624
aF11.102470424145267
aF7.056110004084778
aF9.789493884788188
aF8.260272578343027
aF7.5223896508544
aF1.7646685942033935
aF7.598916885157133
aF4.024870878136373
aF3.4246308285919165
aF3.0271561319622147
aF7.368578011560531
aF5.797010299279727
aF7.0784541126071066
aF6.667584142132824
aF4.950107670310013
aF2.1220697163007576
aF6.357844016706238
aF6.778581564174584
aF6.567887554647667
aF4.962195606817252
aF0.5076663094800834
aF1.9591789567744768
aF4.674683850775526
aF5.338627558868897
aF3.3995935254446024
aF5.207611303446986
aF5.2106279057666
aF1.4077841693762838
aF3.534250110111804
aF3.4737867937533724
aF5.019186379741074
aF5.031706384160092
aF37.29600690619049
aF27.124822604682983
aF20.78774523311912
aF7.9284961333115
aF10.3116974595643
aF8.522269525084281
aF5.1892254372967805
aF5.555944469198208
aF6.034774041993159
aF4.924196546017641
aF4.347445835122176
aF5.024628262996938
aF5.727099385992423
aF6.879375921956785
aF5.774470577967403
aF8.959282281239943
aF387.71410100358815
aF19.61909777054881
aF19.37064400232273
aF10.814047485523117
aF10.085234290486124
aF7.761585271926706
aF7.869096758411749
aF7.629463414255412
aF6.134993681097059
aF8.415126658081475
aF6.680849111991503
aF3.5607958778875397
aF0.8996594873753545
aF5.3854667031226375
aF4.766988457223063
aF5.197879309032293
aF5.680927161988088
aF5.07122273331572
aF45.10640912354516
aF25.788322143312318
aF5.90877329266726
aF7.787320142788155
aF7.1166219517928315
aF6.1182257265104365
aF8.298376156802151
aF6.514752635789287
aF6.442646212939796
aF5.657822384731138
aF5.308500194679044
aF5.722542318887429
aF5.893102629914115
aF5.00520117147068
aF5.370907925300402
aF5.9670168752764186
aF8.39132474382743
aF8.60976102618749
aF53.185956474057576
aF21.11764083581461
aF16.175374410467285
aF12.763189100724373
aF9.163052764749064
aF9.350312555171008
aF11.944142523156357
aF9.125046233054952
aF6.7750013966266955
aF7.34010789277708
aF6.337904738298823
aF5.437372587815409
aF5.791940011576593
aF5.598304294523857
aF2.807730417106123
aF6.2447189920159785
aF19.019032410087604
aF11.682403990158635
aF13.873339598514704
aF10.938886050216267
aF5.86407672171108
aF4.760082529818684
aF5.638949990265149
aF5.8239616659989055
aF13.353806836960421
aF7.661523629898554
aF9.424763150256103
aF9.776198042839493
aF6.6798746848427735
aF3.9213801853050967
aF7.387518757031771
aF8.322934094778363
aF6.4296812744415215
aF2.7280939368662787
aF6.961889172678112
aF5.469973534022511
aF6.881703185950857
aF6.3325016501762725
aF5.5200637781847535
aF5.940074765776516
aF-0.08439738221924069
aF1.4662644764115438
aF6.244432144733553
aF5.045799720171521
aF1.072145640262248
aF3.537622769027505
aF5.758885082238108
aF5.205718864661285
aF1.5237188705131968
aF4.330445909224906
aF5.395645986222013
aF5.256922124433144
aF4.938410347912441
aF3.57443516254347
aF5.2069777232081496
aF0.08558992876317845
aF3.4160492614293934
aF3.297425465107295
aF4.400015448418035
aF5.617683400874458
aF42.02683472014984
aF40.58327758996654
aF32.26708418585869
aF31.541783563345746
aF29.896150508365693
aF28.565438186383
aF23.47561086738265
aF23.28645382773297
aF15.15628468838396
aF14.796896460814947
aF14.864583790385304
aF13.340038547962516
aF11.49109700059692
aF10.78194661548216
aF8.401787602595897
aF8.577815767293416
aF7.5750044370813585
aF6.18511061958153
aF7.7712692471602685
aF7.791935875422357
aF5.833872223579741
aF6.548405238428381
aF3.757261469748985
aF6.995691044748745
aF5.9673250344153805
aF5.892240327894938
aF5.052667569848175
aF9.414862818606792
aF7.1663571298510895
aF37.79154195733745
aF33.643895498325655
aF31.74139551816197
aF30.305238726761967
aF30.210820578782727
aF30.35098160033034
aF24.959074117648463
aF20.883332984271576
aF15.632674407540653
aF16.80017979269589
aF14.103422454838428
aF12.556558298648545
aF11.209861211359868
aF10.670143173844684
aF10.666716433965759
aF9.647500213685644
aF8.982137972589546
aF7.799309483461206
aF7.599023082842301
aF7.998680043051138
aF8.056090463361206
aF3.914742910476893
aF6.298555313590351
aF6.699808828149898
aF5.094971073768918
aF5.228529459455289
aF-0.8019522015731398
aF5.9211352662034
aF6.026947569206066
aF5.342105500569191
aF5.378755531827391
aF3.3738935565564225
aF4.721666167593953
aF9.300448993076758
aF7.979952371242429
aF22.26100295330211
aF17.08661645992149
aF15.147645094638744
aF13.603268985593607
aF8.514965908987236
aF7.713795755505296
aF9.331569930289554
aF7.377737510841339
aF8.73170693593254
aF5.837673379563724
aF7.893178904711746
aF7.589412320862078
aF4.6097514500438495
aF6.7946265466675975
aF5.67405614956246
aF5.067705757633403
aF5.870802072860857
aF5.251067273647315
aF5.1509301455867895
aF5.527222405121338
aF5.373696082000387
aF1.7247977409577766
aF3.848982325358112
aF3.9331998768834526
aF6.325873674488358
aF19.106968860964827
aF18.817960889056693
aF17.761145434732004
aF16.866786346282787
aF16.97855705740927
aF15.02558849796766
aF9.636198689391493
aF16.85284077879433
aF10.46170731333077
aF6.7482778279512585
aF8.679931069328907
aF8.374920541167464
aF8.326127870835169
aF6.051144829862587
aF6.928248699690193
aF5.487455500306953
aF6.778096396329572
aF6.055415283599112
aF4.302853441881491
aF4.5695439005405625
aF4.6412308273433664
aF4.396734971428243
aF5.506899042006628
aF36.49728179596728
aF37.200042892898026
aF22.944559162682268
aF26.105628980492355
aF23.772771627348906
aF22.676835778508586
aF17.122036888093692
aF7.931592787219121
aF9.912865770155824
aF9.608345771576703
aF7.008382016875018
aF5.253410017916968
aF3.984022807865986
aF3.996068222664877
aF5.635730811759645
aF5.660960211041926
aF7.567680280584968
aF5.131806877760486
aF-1.4791000558910394
aF4.352440261620089
aF43.95091702900474
aF41.34357861216245
aF39.2845129917059
aF32.757197182884525
aF35.63238817708071
aF32.62630536084711
aF32.90430058585121
aF26.34855936498873
aF13.345800578618665
aF15.232902806930111
aF12.530171218845599
aF11.970054090444524
aF11.5040510823036
aF10.098006154181725
aF10.711799108565273
aF9.330739214466746
aF10.85612360447594
aF9.722533275896582
aF8.867573357184384
aF8.706239370335089
aF8.414554028040888
aF0.3796096533643905
aF6.130690584524975
aF5.309226780038324
aF5.970602023044361
aF5.167398178091312
aF6.327363890590445
aF3.57474614472778
aF1.373996988718912
aF5.048713595538209
aF6.517364541185919
aF45.830862082078895
aF40.32552136881738
aF33.03183594050713
aF34.15292823608312
aF34.00510618778403
aF35.1670257060839
aF34.16378229857289
aF26.329718218949317
aF13.813355599062998
aF15.812190481196199
aF14.024554991120699
aF12.647161507702329
aF11.98542073053568
aF10.757508884578282
aF10.273133087838257
aF10.865291524034784
aF3.1279216318984018
aF9.410340865704056
aF9.484316244386712
aF10.358170045879218
aF9.26196973876127
aF9.182516356156052
aF7.956703417841653
aF6.466195815711534
aF6.131301692126336
aF6.126580841776391
aF6.143101674411732
aF5.2481254835689
aF4.423454450542045
aF4.8556391321651455
aF1.2400627771569177
aF4.862196866964196
aF7.203958759568895
aF34.76479426163085
aF17.479633802668545
aF109.23479556227356
aF22.561730293157435
aF17.556625805684913
aF12.319154321347062
aF11.418425466519967
aF9.449491829014663
aF6.596026177552859
aF6.1947321614120865
aF5.110301963261733
aF5.2404680441027045
aF6.212967746905515
aF663.2456520992258
aF270.6038602186018
aF184.90673577255538
aF43.725826146273434
aF31.58634672953517
aF30.03242025941895
aF20.148859716004928
aF20.200389352325995
aF17.502212417608025
aF17.24057269798745
aF14.127792446210986
aF14.517775687245743
aF11.802312898214266
aF7.047210677249284
aF8.54992595224793
aF6.251959381632473
aF6.477794522936211
aF5.261160591756464
aF5.28158387303703
aF6.303746008918806
aF5.188777909359492
aF6.923962303650075
aF5.212260326962167
aF5.4484791403425135
aF17.629322306729023
aF8.28031979511014
aF8.695247122423543
aF5.523235345879462
aF476.33541545996206
aF28.300496512608017
aF23.756747045653754
aF25.45842749703888
aF13.732891990873856
aF7.235665461985589
aF9.585766328224755
aF7.598579374479103
aF4.3992716586580585
aF19.192161856344327
aF6.527491732656324
aF4.69434464857331
aF82.17775338306367
aF62.643457034258034
aF63.72463383938321
aF38.08828323112017
aF31.52387474189631
aF18.88322165451262
aF9.823682799820627
aF9.519843433682807
aF10.133069771241834
aF8.195822979084781
aF6.325734242689807
aF7.663671629037406
aF5.35406291131138
aF6.826900608844944
aF6.282227074051026
aF5.9355409821088845
aF4.579733009331892
aF2.962090399920456
aF92.64486469705284
aF63.988233774342774
aF34.31877031227043
aF16.6431784437399
aF11.22644979950418
aF8.694033704223862
aF11.277644311417156
aF8.241098769342798
aF6.497630811428008
aF7.0991072769155
aF5.720275950783722
aF6.180244867742935
aF5.587797984809568
aF5.067575016835859
aF4.902493877764162
aF5.965231734799357
aF10.767450004772863
aF228.57358843910927
aF18.81345311201911
aF19.797492300522865
aF14.45045733387079
aF9.987263627054457
aF9.484563129720463
aF11.302207797319062
aF7.223400436616273
aF9.177942560023007
aF5.054680009613335
aF5.488489825690023
aF41.65547869975246
aF31.148758221490446
aF20.697536344758927
aF15.061172645190005
aF18.63142142247469
aF17.142219177081632
aF16.812686225408974
aF12.566693310309162
aF5.5314210915450595
aF6.385699197270911
aF5.716269995060006
aF14.331885675010595
aF6.642477100977831
aF6.890534558871876
aF29.52296416166156
aF11.37166130365668
aF10.02671317815224
aF6.54174527678232
aF6.212569417708492
aF6.031041782368137
aF5.823313223436347
aF56.387432025474006
aF24.174476522741518
aF17.28578347468067
aF11.668806676184106
aF9.059874939109221
aF7.413302921255826
aF8.592923318474151
aF7.440818022021063
aF5.387391555373106
aF47.881466502851026
aF14.9928788006864
aF17.244887041896817
aF17.002503494368508
aF13.242843447967946
aF14.252305951885749
aF12.061632868797686
aF10.273981220215887
aF9.317151669212343
aF7.329511201369744
aF7.507498113450207
aF7.776692119380122
aF7.23022479103349
aF7.0308874339736525
aF7.179284646083231
aF6.476773175449901
aF6.932792334030756
aF5.782304141407937
aF4.199504359486233
aF5.271274115163525
aF245.158802961954
aF15.901904167948587
aF3.158252654899776
aF4.642089143182659
aF5.241572071422607
aF5.6861755846429505
aF6.9631502040732505
aF6.959493320232357
aF246.11874330903217
aF16.863862470644143
aF18.520916539824523
aF7.565188805224078
aF14.089281488456203
aF9.993841184749117
aF8.750123558428617
aF7.420180121540034
aF9.331343178699663
aF-2.2704540325594857
aF6.639571118008625
aF6.033335514299985
aF6.302808127652887
aF4.818509010251883
aF5.910609899842822
aF4.162176686448257
aF6.156606374072638
aF7.2535943445785565
aF73.39983247202683
aF29.11176691614764
aF21.801872741342937
aF19.343448224280838
aF14.055161557362926
aF14.759367079670735
aF10.891226936902711
aF7.841447646584635
aF5.9216283432717525
aF3.5708550613087096
aF6.0393025123698045
aF4.226957964984794
aF114.03507628165585
aF9.069738766626598
aF9.380568425215957
aF3.787158072242962
aF109.37609069823341
aF61.17901602972704
aF54.5987112288697
aF31.149591200997648
aF26.227051593375176
aF17.935485852094427
aF16.944534065070595
aF17.63536169270137
aF12.164589340364193
aF9.172310939125142
aF10.266375530634301
aF9.118144998198606
aF7.751151615740635
aF7.120264716218218
aF7.605124179137935
aF5.8902034791327145
aF5.619646830396092
aF4.691464922231903
aF5.375456775236684
aF4.583568499934394
aF3.9283199076596063
aF69.94731885238075
aF51.864998026844724
aF50.73922369575238
aF28.107117770680713
aF23.14683588561306
aF20.795475833555784
aF17.499970889948575
aF17.75664693788047
aF13.251457462857251
aF13.191493245596488
aF11.328364679872351
aF11.091087843987573
aF8.101137784188321
aF9.042200964997207
aF7.154917205082778
aF7.65396652221711
aF5.882096905089849
aF6.786528400960084
aF4.614724198125155
aF5.462013316661869
aF70.13147677204326
aF20.591941174469493
aF13.79796657807112
aF6.966779358563253
aF7.911638254275083
aF9.61916533727176
aF7.647896953818113
aF7.197833506053307
aF4.302489507391964
aF5.145311002644296
aF6.082227557084098
aF1.842426805251078
aF4.1914309510164935
aF5.29008962593597
aF6.7449194436354665
aF8.757497265612509
aF81.24040221466268
aF36.092060749996726
aF16.804537751252894
aF8.833766306720518
aF9.635473180339227
aF6.923665428819487
aF5.699081827118793
aF6.6389978957314595
aF2.318397183404321
aF4.039021370815491
aF5.418855423534829
aF5.269946543281464
aF248.94706226709567
aF206.54709482332626
aF39.62729214828075
aF23.564737678743292
aF22.279636197447797
aF18.26768445326204
aF18.64105077072747
aF17.727087490467152
aF9.250646378529506
aF9.317399335579703
aF20.56917214327593
aF19.417298948811027
aF15.045904697994432
aF12.613065604123484
aF11.681976795296032
aF10.983457473854289
aF9.241702207118369
aF51.95784094114258
aF30.27973775462438
aF25.10989669157651
aF12.037601533878874
aF12.568105449211457
aF9.661870948839557
aF7.712117171553391
aF5.698859534483625
aF6.040728569544773
aF4.1109319020056345
aF3.988341189263549
aF47.97275704179886
aF45.11836664076468
aF31.875497855421692
aF30.323724724864192
aF23.32436471746193
aF24.32213124517297
aF23.55284074331387
aF20.63159504234731
aF14.284851970994037
aF9.016715253538854
aF12.928685305313856
aF12.295811543040669
aF6.3602801726987535
aF5.039237135713393
aF92.0551736332062
aF62.50400164258
aF43.12984566334464
aF10.605569947124053
aF7.596772036785599
aF7.050744863633544
aF2.207754775503625
aF3.9708883870215863
aF6.165099376022017
aF5.7937907333974055
aF6.377988121720708
aF5.641838833075657
aF4.120511421261614
aF4.634540056034477
aF37.28716387781976
aF27.74252380736816
aF17.91210525284794
aF19.846677632224726
aF15.737195780046491
aF14.584734813261427
aF13.48568925446252
aF9.900405172462166
aF9.275064030262051
aF8.759543347374223
aF6.5201187365947995
aF5.597731015068492
aF8.440037207201293
aF5.224240593201585
aF3.0773872470641135
aF4.776728297988513
aF5.386753169783557
aF208.6260653279533
aF97.48296879734959
aF47.348550927143535
aF58.30995233259946
aF21.27935032339316
aF15.069755751300912
aF16.316646377140973
aF10.089156230640699
aF9.036691534063213
aF9.936366650461187
aF7.3616928316775265
aF6.853190070769838
aF1.2953234138089502
aF5.364593006170041
aF4.0083506824572614
aF17.100888562730116
aF14.448884980080152
aF8.75483676195657
aF6.528046569543438
aF5.226717502646507
aF8.339581659537776
aF26.7851234608203
aF6.915588272029742
aF4.909310477007943
aF5.676132727250843
aF5.296576111437802
aF10.370040579364057
aF34.16859664919411
aF5.602111101711054
aF5.391711401484383
aF10.527794293130981
aF34.141874065950205
aF6.537163428585003
aF10.955023429388476
aF34.29723984816516
aF6.79231798161273
aF4.109101576282097
aF11.019134704101218
aF1.8976220808739523
aF28.290036680971514
aF7.596317507893231
aF15.39373167873248
aF9.592930532654623
aF11.799708480839726
aF12.044947849901574
aF7.717984970300175
aF6.149431435923562
aF5.279738305421433
aF5.078845405085668
aF-2.7922778457338278
aF-0.3076450618394761
aF7.304260742849365
aF6.911541491368202
aF9.091611149053039
aF6.3153022080368615
aF9.075159895601113
aF7.3327811662470594
aF9.378510651185195
aF7.807573225225072
aF5.192129885687071
aF9.075479539510727
aF7.332393986037114
aF8.962441474233914
aF8.558380694959288
aF11.234063881885678
aF8.356249446869262
aF5.0399195257603475
aF9.17262037536108
aF11.374863618339678
aF5.14870242700657
aF9.84656151644589
aF11.29048366785608
aF5.164295283535804
aF9.172818539528448
aF11.376111530069902
aF5.1494051124879014
aF30.04097409657673
aF118.65605957625336
aF11.580996357301624
aF5.908759503277876
aF8.333874355756992
aF5.976543243659233
aF8.627243214650752
aF3.9108021175284167
aF10.752827333533368
aF3.771292718281694
aF11.000148965716571
aF5.618503464579092
aF43.71128477383432
aF31.874646541300574
aF24.35037185644281
aF22.225156568928927
aF19.817652300125626
aF19.36131967125205
aF19.505975415029553
aF17.54178664960364
aF13.316268024811851
aF15.416434261429075
aF10.083548001064768
aF10.685740473450316
aF8.989560170627449
aF9.036451242258652
aF9.09790002584806
aF8.420953645973245
aF6.530421462542661
aF7.2815304794494065
aF0.6098523434411666
aF6.863570469343581
aF6.443985069479617
aF7.5302659300697234
aF7.063688953846787
aF6.479216116388607
aF6.115988345383836
aF6.486105038413179
aF6.439251413545752
aF6.719414047982526
aF4.727388451832422
aF6.634954760828339
aF4.856094135785743
aF5.725082779671012
aF5.079905040151785
aF2.6431172189466454
aF5.896287920734785
aF5.419538067435267
aF5.165316761318098
aF5.256045703581392
aF4.222833953345058
aF4.2123883562597975
aF4.973740020520615
aF4.794786497562134
aF2.757631491369283
aF12.543205089895078
aF7.521080771302178
aF5.474437549269685
aF12.320451536124628
aF6.217338864920772
aF5.198340574240253
aF5.675772055136408
aF9.834385451078008
aF6.980228076686196
aF5.667736465766094
aF6.003352977529818
aF2.1946233346565056
aF2.2149459993564045
aF5.091586467595604
aF7.060554977990793
aF8.372501546272732
aF5.595367008196884
aF6.557752978662272
aF5.288460694938942
aF10.492452746130398
aF5.68849967352389
aF8.828994454905748
aF5.115708263079941
aF8.97773767633498
aF7.6722049966317645
aF7.031467761940137
aF4.445215234054758
aF6.567595389786365
aF6.1349965261892985
aF7.818721070824647
aF4.786756418603408
aF5.389888897116121
aF6.014870148840678
aF6.135483529004264
aF5.897027864769938
aF1.7119167766821006
aF3.8332278446003385
aF5.823460057954893
aF5.500362518518847
aF5.8246322930685315
aF4.006317225968972
aF5.291736651916316
aF2.1123765682685263
aF4.895596540945026
aF5.166547366374607
aF4.8760156685388285
aF5.249054033173572
aF5.148079296986272
aF5.012357537119026
aF5.137965865002008
aF3.2303025427116223
aF3.262374817667137
aF15.821793582468624
aF5.068672260932901
aF34.14353007307806
aF6.536585688391051
aF10.955719692979134
aF5.107667647990072
aF4.861936890028714
aF4.7030742114428215
aF7.642197712807909
aF6.737937179582636
aF4.07339276153861
aF4.85579158201756
aF3.551379127699505
aF9.60209392400589
aF7.627823412965427
aF6.9912488031760045
aF6.43009917521829
aF5.784059193300782
aF5.529551221986587
aF5.590341308533058
aF5.737207556638662
aF4.8336279272208
aF4.975481080623167
aF4.795753966572208
aF7.3217612380081665
aF13.55694535589746
aF9.471558852766307
aF9.853097928229364
aF5.783279970720731
aF6.9841606721689224
aF7.1843489702397
aF7.821668793755299
aF5.552066608863828
aF7.783062420488665
aF6.893896647842718
aF7.475269233509116
aF7.493119826909803
aF3.550190270869368
aF7.174639250957783
aF6.092420030352561
aF5.363358978874583
aF4.789094492127254
aF5.407018441772848
aF6.03127168291732
aF5.669665216811818
aF5.2517611341092785
aF5.305627369293746
aF5.274723190969711
aF4.796998202192869
aF5.255640353312437
aF4.834692868665035
aF5.635437857990719
aF5.71719718296104
aF3.534789016911747
aF4.956180800900578
aF4.581211018293669
aF5.069760021839565
aF9.141478166827925
aF5.751259133774325
aF19.097245881359516
aF16.005109252254666
aF13.446421325660731
aF13.94854965969068
aF5.761093839363944
aF7.453700354074041
aF12.142152706188915
aF10.885183184252622
aF10.641074348471
aF11.201403938920276
aF11.195974112668624
aF9.952830362781834
aF8.140946932418919
aF8.243033499404646
aF12.647315355666207
aF8.47125004469558
aF10.367631537433445
aF9.572119424283429
aF8.821971997218531
aF8.724786426166995
aF8.495497126398519
aF4.388192510465167
aF8.861456306978596
aF8.536662833946405
aF8.678680877533633
aF7.927796440331228
aF7.451498879363866
aF7.781669416542983
aF7.127335087137852
aF8.439422811895154
aF5.841587558976122
aF5.973049721595874
aF7.741183429108005
aF7.335948757309411
aF6.362537020037572
aF6.488345478508414
aF7.324866210727813
aF4.4402727226911844
aF6.148669842835488
aF2.645795844235444
aF4.7064578497892695
aF6.694442935716977
aF8.609701715378213
aF6.372046445814201
aF5.274427668860789
aF5.651780803556114
aF6.699801708032023
aF3.6329822514528542
aF6.2299255961724285
aF3.4517776791280346
aF4.6284909295358485
aF5.327516576712852
aF5.7453320932360095
aF1.3619821388681317
aF5.33932794117458
aF4.942932134915679
aF5.519841090860053
aF4.829295555105507
aF5.257688128683344
aF4.942905366746456
aF5.357656877281566
aF4.42699672358513
aF4.869391094503594
aF5.2769057184542785
aF3.5026107950332297
aF5.379040386670497
aF4.799437058486987
aF3.3643089298683084
aF5.18552006496499
aF5.785372646117238
aF13.97982584800558
aF12.922301827193106
aF60.10782754123886
aF21.567371578537088
aF20.73573067255048
aF18.24280388808978
aF11.650560285423946
aF15.642978436919618
aF13.783614147376767
aF12.626690912036052
aF14.788199530504635
aF14.269622661450756
aF8.59457533357381
aF10.346613118250822
aF14.201120017508321
aF14.033323185256386
aF6.059122096330374
aF13.373719081895105
aF13.365803312822877
aF11.932432632393914
aF11.945905684803519
aF12.111834752170294
aF11.819985784667466
aF11.767642133600551
aF11.299070163648276
aF10.7498535090196
aF11.087873853682117
aF10.556483161482346
aF10.874728370234715
aF8.204041733718736
aF10.085944398166406
aF10.049510968731642
aF6.477784963082567
aF10.991793225029788
aF6.467441911110593
aF6.272753708402963
aF-0.059586745079574864
aF9.181467450121307
aF6.804431122544081
aF8.871431045555722
aF8.235606994527389
aF8.307420367348858
aF8.293135040554615
aF8.270461408482424
aF7.646807138409928
aF8.204683995061853
aF8.0951113438278
aF7.347442026265187
aF6.843651849244432
aF7.415669141944218
aF6.773220667725142
aF6.0461467471715045
aF5.253661734362426
aF8.046665890396326
aF6.9303360042226485
aF9.58417341710442
aF6.455970514013589
aF6.614100213071624
aF4.328577611889838
aF5.2727559545142855
aF5.963836445770732
aF5.965097733457
aF5.984285326221949
aF3.7393711220713755
aF6.46188423297162
aF5.116879665381131
aF6.200198221414998
aF3.720696923219333
aF5.947814224682291
aF5.414630463359269
aF5.453763781452805
aF5.739139176017082
aF4.380068410263276
aF5.39335682930283
aF5.858994048549416
aF4.735425885537778
aF5.7113950699377565
aF5.099874557633381
aF5.617724436582504
aF0.6942562091507442
aF-0.9360956238241313
aF4.774384958535582
aF5.709593313681459
aF5.6711828352416624
aF5.684253717072632
aF5.071821457207258
aF3.4451821296188183
aF5.328620490797109
aF5.1033823745545615
aF5.351003437737298
aF4.015535481561477
aF4.528486830801947
aF4.322890270882545
aF4.899562889139133
aF3.1700793668760734
aF4.736952742646476
aF5.151470138705343
aF2.368026171296313
aF4.650352267968206
aF4.030014719112656
aF6.555477841680477
aF6.041598139543581
aF7.651101685709258
aF5.258079939751111
aF5.503567259853368
aF5.386952877997474
aF38.141498375518324
aF10.753129032579317
aF105.49383819066328
aF35.760572857989125
aF28.11096985677389
aF26.830824664701414
aF25.860203607587966
aF19.681049817047157
aF16.701350981240193
aF21.320445098329056
aF21.30848635991033
aF15.97204099716223
aF20.724460931180726
aF18.082341634641853
aF6.228834879495798
aF17.995452831474548
aF17.583124088557337
aF18.024487603161333
aF12.233237593087466
aF18.30893264619503
aF17.384063489532227
aF16.71371599219049
aF17.88946669243469
aF16.51992015630579
aF15.688609615288627
aF15.070527846752865
aF13.378465872974491
aF13.202183239415353
aF13.60321488983028
aF13.009893051259489
aF12.605401445629642
aF11.996813243638902
aF11.835825341276893
aF12.440381352127435
aF12.295832485093696
aF9.120925215314587
aF11.552214025144716
aF10.424860003235217
aF11.961504493049901
aF11.80446200281924
aF11.035728416413288
aF13.617283038247715
aF9.878352809242923
aF6.605570697303556
aF2.8193031340200085
aF8.678878920827199
aF8.043048075615237
aF8.675677814440853
aF9.308134599540507
aF9.124357445434741
aF9.199762830056486
aF8.998595955383607
aF8.917092849941241
aF-0.2859306351709666
aF8.777416110742985
aF7.633913957951
aF7.532031663225593
aF8.005880470013771
aF7.696231681352769
aF8.359630341133323
aF8.334019477560433
aF6.45204258578985
aF7.738529060777286
aF6.258196368482228
aF7.706595813846978
aF0.4673656045920777
aF7.357504585840986
aF7.656150999031437
aF7.2218970134221125
aF4.558848769490335
aF7.270422275490925
aF7.378960619880535
aF4.347785602104088
aF7.269242270492892
aF6.989325991181638
aF5.810515593690224
aF5.956566742129209
aF5.562564377492127
aF5.991733917444347
aF3.7130356073655086
aF6.3999922189989125
aF5.782126691611888
aF6.330020344465913
aF5.992950820171782
aF-0.12865883382885962
aF6.073425204445098
aF4.615251293142866
aF5.500045607172487
aF-0.7961500031018129
aF5.140504246816358
aF3.473126639094408
aF2.6430663706894983
aF-1.9129587848323941
aF3.9538061161934106
aF5.247352518492837
aF11.278890205157445
aF5.174858109054013
aF4.394993553736357
aF5.326491751121031
aF1.211282551482986
aF4.197186241260645
aF0.6482688398336037
aF5.258139897570231
aF4.852916276960961
aF0.480212475433696
aF4.562394681601537
aF4.9513804622421285
aF4.432299004484322
aF19.514481777231296
aF7.213416100985636
aF8.642353707508784
aF8.18427945940469
aF14.00396824276615
aF7.50095653708964
aF10.6012798339939
aF20.419049132491672
aF6.871474100836044
aF6.3694022601888625
aF14.29704363404309
aF11.732288316792113
aF11.834907768893702
aF13.751978833214569
aF5.810759661580932
aF5.108413335223487
aF100.76842554274351
aF28.903091159772107
aF37.48164832982171
aF35.01935790259562
aF33.83370305418971
aF33.70549774546999
aF31.379637703965148
aF30.783798331722068
aF30.639548691207253
aF30.656283488994642
aF30.30344600377047
aF30.509858483470907
aF22.65196232242151
aF30.52232583713363
aF9.648689970210768
aF20.917165400621094
aF21.20142902808329
aF20.71496712884684
aF19.5080894430938
aF19.902182586883853
aF19.122748105516077
aF18.477977254377095
aF19.100085016555493
aF20.673357735049827
aF18.236262817800274
aF18.216107609486944
aF8.49238027453366
aF17.46610154572744
aF16.900869603086008
aF10.215428196310912
aF15.419346606870194
aF11.823721869000705
aF16.164882473739766
aF13.955854142781984
aF14.988630261408598
aF15.165370024548604
aF14.232259571976414
aF14.330939078663125
aF14.37057492696774
aF14.160113531017053
aF13.904764479489794
aF12.625225520239749
aF13.138686277300243
aF13.615843062263412
aF13.084162132913521
aF12.369437224217524
aF2.9330732537692525
aF8.403579761367176
aF11.275080552355055
aF7.90243554169219
aF11.413268317592511
aF10.448852518827405
aF9.677922331276072
aF8.64413281620267
aF10.361603496571721
aF9.545860882092343
aF10.328123193941023
aF9.695460991166028
aF4.287457099067148
aF8.548282391178597
aF9.652621853816157
aF9.399785066846851
aF7.574784829436817
aF9.2401280835274
aF8.76910606822464
aF7.758731048632224
aF8.696365638734095
aF8.831817540894198
aF8.074406003111973
aF8.033555075389147
aF6.071183266616488
aF-2.750034328106973
aF-1.2443801536996988
aF5.694530291235044
aF3.9955912805957388
aF1.5542989431251302
aF6.8983469821934476
aF4.9118500848186395
aF6.349908490121647
aF4.945382067169677
aF3.5268548163544264
aF6.076782077746454
aF5.291634577799395
aF-0.16033621103323042
aF5.494448106888656
aF6.128183342345248
aF5.736302802705121
aF1.4878759930755296
aF5.232379341472917
aF5.301972800855508
aF5.7131241984185195
aF5.807846003765935
aF3.3083630041782586
aF2.5536337959051405
aF2.6371804982265754
aF4.484030062368733
aF4.866066450897013
aF4.180499243645949
aF3.319420307039988
aF4.872656861085571
aF5.348622009332561
aF4.659907965326092
aF3.3079907985962187
aF4.853326884296137
aF1.6132028084825014
aF4.585393751749998
aF-0.15620988655321738
aF3.7878130181346488
aF4.949323858894343
aF4.3633037338000085
aF5.542874992593528
aF15.684919110705028
aF7.326575047535589
aF20.017668818050822
aF12.809263495899913
aF21.25640683290666
aF10.088943091853016
aF17.99532661532238
aF10.311101791323077
aF13.678283927319528
aF6.704379897362388
aF5.243979959555493
aF12.681458255502072
aF10.920460027018995
aF6.603582648713028
aF14.172806771206904
aF15.351500298555353
aF5.0729468589233395
aF5.81707894316731
aF4.32879300768452
aF11.782473501653257
aF28.23925501457177
aF5.251145997320131
aF4.328169134659714
aF19.535398096339726
aF15.876862885825322
aF332.3463890392344
aF181.73900848859714
aF76.90456369356609
aF71.8401703023235
aF63.65227148129723
aF53.582058803829014
aF48.801508127287406
aF44.99123477129092
aF37.66750834336032
aF33.036287814392125
aF27.132495258623887
aF27.666289817360397
aF21.930851400742704
aF86.08960233581507
aF15.921066102977257
aF13.73474012000999
aF13.412328851923931
aF13.955454787367652
aF13.65654066494876
aF13.425158323062993
aF10.092081916947418
aF9.402215139190028
aF7.823230946653807
aF6.855818806920907
aF6.68581310942288
aF16.963764169402072
aF6.178981116560997
aF4.922662261297368
aF2.8905093087847322
aF4.214552811970791
aF8.945463545069043
aF0.788398220114728
aF0.788398220114728
aF6.437433815421923
aF5.455949483117497
asS'wb'
p3
(lp4
F62.4535418109832
aF39.818519279676586
aF80.832952990064
aF27.555515704333764
aF10.205764041604867
aF4.812568583574807
aF2.60978392091311
aF5.237541094538473
aF18.66915227662798
aF7.026620448437549
aF3.3939546369740343
aF5.421442014510099
aF265.2664196311249
aF19.86091811022295
aF14.410937485011225
aF13.54944587883868
aF13.425469929241874
aF7.889999736771414
aF7.149008957525566
aF1.4045878519849628
aF1.2104821323389134
aF0.9723336573995658
aF0.5258651539869321
aF0.5035250545029842
aF0.4471135780785187
aF0.4361883633424051
aF0.39606509915580196
aF0.37009047480690105
aF0.3652561729358513
aF0.3391290553976437
aF0.3190346939630463
aF0.3104027156505472
aF0.2668912902906625
aF0.26295260503733003
aF0.22197773804295504
aF0.21682104567919647
aF0.19596648289681248
aF0.16865738597564586
aF0.16514621277744088
aF0.1558172986079773
aF0.13987367631490916
aF0.13460093400348702
aF0.12504541607353614
aF0.12078828301712875
aF0.1175625014346317
aF0.11465784223790125
aF0.11458066376278953
aF0.10964773467474506
aF0.1011734613313483
aF0.09988917215770243
aF0.09546095831397344
aF0.09115087056605448
aF0.08845608390706869
aF0.0858867358354119
aF0.07877739042204245
aF0.06636426723566864
aF0.06622091114977817
aF0.06104880856666639
aF0.05736489461538364
aF0.0571162892651089
aF0.055901701822061535
aF0.054667773910733665
aF0.05264856607769588
aF0.05133738886220867
aF0.04889846873964305
aF0.04548339920627069
aF0.03350281834899966
aF0.031894636439987537
aF0.03115181982540569
aF0.025180145006527998
aF0.02447610054959817
aF0.021131258681603555
aF0.017786445023851686
aF0.017429401798246334
aF0.012251869004073572
aF0.01017974741417049
aF0.009812310185223166
aF0.007691628854817199
aF0.005109405805506144
aF0.00282090261495298
aF0.0017303670293125988
aF-0.0011431908180962243
aF-0.00160714902812305
aF-0.001879643659512463
aF-0.0019998406490254615
aF-0.0021031971562845727
aF-0.0029024396385629453
aF-0.0038442780461730563
aF-0.004951811107929878
aF-0.006166446646606272
aF-0.0061665498618132175
aF-0.0066306912858633505
aF-0.008675851928597614
aF-0.008891674084457828
aF-0.01013860349048749
aF-0.011945521353736877
aF-0.011969843794231902
aF-0.012235680409153364
aF-0.013600721350983707
aF-0.014094244116085381
aF-0.014415819647968519
aF-0.017446809981161732
aF-0.019472114518642086
aF-0.01989652736992504
aF-0.0233613803259167
aF-0.023459241681423437
aF-0.02371106491841126
aF-0.025519218171473183
aF-0.025825936215843698
aF-0.02588082205483187
aF-0.026348478153767747
aF-0.026718513586179743
aF-0.027309187597953102
aF-0.027410583782832933
aF-0.027575566227791063
aF-0.027796709301162587
aF-0.02843934355080348
aF-0.02853951383841443
aF-0.03307888893199041
aF-0.03322603784910292
aF-0.033935502503178595
aF-0.03427867241681736
aF-0.03483921010553438
aF-0.035186239988611784
aF-0.03553652948737634
aF-0.037909607949505736
aF-0.03835772202600942
aF-0.03982870735825406
aF-0.04029487727110498
aF-0.04320698863610183
aF-0.045551980693732314
aF-0.04623550571206525
aF-0.0488146087975828
aF-0.04955585823784589
aF-0.05209664016111568
aF-0.05237459828574882
aF-0.05281999534315762
aF-0.05436687726344348
aF-0.05495914641807476
aF-0.05509851118313842
aF-0.056670837080577775
aF-0.057824292524692324
aF-0.05828289431584888
aF-0.05868261519904557
aF-0.05991316354988285
aF-0.06258116211685465
aF-0.06424744332065901
aF-0.06589099043790278
aF-0.06715708015843345
aF-0.06719684559380162
aF-0.06824667106518638
aF-0.06838438959020893
aF-0.06874866169565008
aF-0.07042070616315874
aF-0.07057966394115202
aF-0.07115391883725711
aF-0.07214286919875969
aF-0.07263767707842261
aF-0.07266773688589337
aF-0.07303838201782413
aF-0.0750351714557185
aF-0.07522172815856637
aF-0.07551996812224925
aF-0.07637373240185633
aF-0.0777875140008616
aF-0.07790522204212225
aF-0.07970021815320384
aF-0.08120639856905046
aF-0.08237788068705937
aF-0.08352133040117653
aF-0.08561714927277947
aF-0.08585217221346295
aF-0.08648065984428921
aF-0.0872887495669024
aF-0.08899247905807879
aF-0.09068777035376747
aF-0.09161982855052994
aF-0.09400740495983813
aF-0.0963837934378204
aF-0.09771834079694186
aF-0.10202271002761196
aF-0.10255439285319168
aF-0.10297110795597003
aF-0.1041842483120252
aF-0.10423198619711774
aF-0.10680725273533828
aF-0.10723524058573104
aF-0.11111384919736787
aF-0.1140404245683546
aF-0.11423699544246632
aF-0.11457462396628244
aF-0.1184950386203373
aF-0.11896133547782567
aF-0.12170810508545385
aF-0.1236906911204294
aF-0.12682025435525665
aF-0.12969697788225085
aF-0.13267396392074324
aF-0.13499482403813093
aF-0.13934840626202905
aF-0.14418253870633455
aF-0.14436148767893384
aF-0.1468142763078249
aF-0.1509337371578867
aF-0.15220671196497926
aF-0.15464757966222906
aF-0.16008416557050814
aF-0.16296347547867304
aF-0.16578383094196553
aF-0.1827767347812602
aF-0.1873418739633681
aF-0.19089909763532253
aF-0.19527660200563868
aF-0.19565235819531754
aF-0.20651403564296
aF-0.2153523572228175
aF-0.2156080294021745
aF-0.2318030467674531
aF-0.2482991390802456
aF-0.2517325518835833
aF-0.2852040481859111
aF-0.2919276030923506
aF-0.30397472722747737
aF-0.30996199467302005
aF-0.319077269949583
aF-0.32814362944264697
aF-0.3497511443666325
aF-0.3623179605660533
aF-0.3627962568752109
aF-0.4020320053031701
aF-0.4620319991330767
aF-0.4758764967289271
aF-0.4833608138028229
aF-0.5073333649121679
aF-0.7141995322493015
aF-1.0257220365192208
aF5.6177906763528105
aF358.3394493010813
aF87.45948989781796
aF63.36503883842757
aF46.78014756209794
aF12.455006260972194
aF8.201931541673861
aF8.040569636483498
aF7.340396925573274
aF6.690735793492284
aF4.510501217077006
aF9.099464176967029
aF8.94844122959327
aF5.951766844625082
aF5.624668441591583
aF5.4163914603658405
aF0.7116892854264373
aF0.5868089301168417
aF0.4342945766470808
aF0.4003021254511532
aF0.3350422221448937
aF0.24988313205234136
aF0.16711005164971887
aF0.05769100298946734
aF0.05465654552589394
aF-0.004162690729995357
aF-0.13804155732749213
aF103.6227216323316
aF51.30319148861564
aF24.313688694471058
aF16.895762354588555
aF15.889041419762686
aF14.700622139342489
aF12.905895321139901
aF12.329273493090028
aF10.698465435237964
aF10.41495334108089
aF9.612566130400513
aF9.39796710130198
aF8.815376556476412
aF7.251419132928611
aF7.23001461890381
aF7.0153056783268575
aF6.285231917874451
aF4.827533563652116
aF3.482002893510658
aF6.399584690206067
aF5.692822774881238
aF5.6103583653687945
aF11.715038883481505
aF6.454869698060198
aF3.7271769720286874
aF8.08659792383518
aF4.606153522082481
aF0.1430264591815716
aF20.111385479939248
aF9.324579749754047
aF3.7264030753813473
aF134.9709574078402
aF134.25482877229868
aF40.73213513142611
aF32.36525183239829
aF29.713198480746513
aF16.023458733391553
aF12.847240366477687
aF10.952069741946325
aF10.738266151697957
aF10.214793941164608
aF8.413437001421718
aF6.645869004190688
aF6.441859861532798
aF6.415372416710987
aF6.3830913775053775
aF5.409624453029919
aF4.516670983786848
aF-0.08399375418807414
aF0.13086237492030806
aF0.1184289426683418
aF0.1092168517533084
aF0.10359797073227996
aF0.09604385265342658
aF0.09042101996110667
aF0.08088475721968261
aF0.080609703355136
aF0.07990651844058631
aF0.07885122805479063
aF0.07288161058218816
aF0.0695239062540124
aF0.06693394682829612
aF0.06395528176897476
aF0.059134590856957325
aF0.05468011972998412
aF0.04824170303899437
aF0.04709618400837541
aF0.04524418271251792
aF0.042987994925091436
aF0.039521048888267324
aF0.03918630165223961
aF0.03835321992943032
aF0.037532131629973715
aF0.036003920715156026
aF0.032989019864519964
aF0.027145110182197844
aF0.026666113510256998
aF0.025547695571261717
aF0.022370958304710812
aF0.020557843461861267
aF0.02050042972977625
aF0.017505856085737414
aF0.017386280153550957
aF0.01724860691540084
aF0.017054372600300904
aF0.01691235115147772
aF0.016318179142333432
aF0.016100640139817653
aF0.01602594997416327
aF0.01503498287761746
aF0.01354051163097222
aF0.013191816723895994
aF0.012503308049535582
aF0.009054629997045907
aF0.008203132994437827
aF0.007985470986998304
aF0.007969226395058353
aF0.0076063949544551345
aF0.007587662122712842
aF0.006207199518705958
aF0.004863342409595151
aF0.003969086500945243
aF0.002904598855731525
aF0.002623914054348641
aF0.0019036864989657879
aF0.0003938425525729458
aF-0.0001038186161950182
aF-0.0004370900948285655
aF-0.0015203017638897624
aF-0.0018484217079848774
aF-0.0028972226350929176
aF-0.003926154594865755
aF-0.004638648853937302
aF-0.00471854235582639
aF-0.004915184514935271
aF-0.0052905048621363065
aF-0.005605640022238519
aF-0.006182851211912022
aF-0.00660251129917156
aF-0.007038105943128781
aF-0.009145163852039052
aF-0.009204417904766464
aF-0.009828514858623924
aF-0.010176405320677914
aF-0.01037097377459161
aF-0.010931911031838095
aF-0.010968809883421835
aF-0.01183260069588268
aF-0.012514663041811851
aF-0.01298210420378932
aF-0.013837696194832027
aF-0.014135308776367088
aF-0.014159224653061396
aF-0.01536415465520225
aF-0.015984303940947357
aF-0.016050313550756427
aF-0.01626804553074563
aF-0.016839027352051263
aF-0.017278915844033547
aF-0.0185924682309126
aF-0.021446633343964225
aF-0.021878206390344587
aF-0.022217725010828783
aF-0.02231470093592817
aF-0.02342583203676361
aF-0.02412236331846687
aF-0.024153136460695637
aF-0.026856948539729118
aF-0.02880356271074318
aF-0.02988690757856715
aF-0.03157595096758758
aF-0.033389155364614564
aF-0.03599502100993533
aF-0.037354145369655686
aF-0.037583851874619566
aF-0.03941357910619691
aF-0.04031721142254045
aF-0.05741195112910862
aF-0.06338300303300222
aF-0.0741698335379923
aF-0.07456836285413074
aF-0.0782494305479528
aF-0.07977551060542068
aF-0.11421375034701765
aF-0.12430219318471405
aF-0.15149110266980215
aF-0.17753632872815114
aF-0.2147037444400035
aF0.004535413403799188
aF-0.002016227589801416
aF-0.04856946217610053
aF9.955693000111037
aF5.691628766205048
aF1.7274176200468918
aF6.007375144244612
aF5.592297108199147
aF7.511228448893488
aF5.555584778346257
aF5.184064195164365
aF4.5120741476158335
aF11.352397537155895
aF8.522956302587588
aF6.507788565634151
aF6.112332975244727
aF5.113018110836337
aF16.007382730425793
aF5.754321024341313
aF21.57224419908484
aF8.83679581506556
aF8.77856306773573
aF5.1781814947414455
aF9.388775782390262
aF5.368112207215347
aF1.9052272357239588
aF11.963158712869737
aF3.3026686827781035
aF0.8326946407895545
aF13.101420717190267
aF11.096386473622124
aF9.861753635982517
aF6.812703150145943
aF29.47640921855839
aF23.30279913011425
aF22.80391990116993
aF6.992520000100999
aF6.771187227546139
aF6.405970999946983
aF5.982580372972753
aF5.674455079507355
aF5.228378108866584
aF5.123942747544297
aF13.099873594838236
aF7.101914636750947
aF15.3004323991806
aF10.208436829239467
aF45.4606238639618
aF44.59754925934206
aF43.769676716312745
aF16.38574976673118
aF16.34818553313154
aF14.926221563133002
aF13.60038759328856
aF7.531639305051019
aF7.086923437207707
aF6.8260561254419185
aF5.627491103311769
aF5.215066212931073
aF4.712686836080786
aF31.32950367457087
aF18.874481548574785
aF18.13947879157245
aF16.28883637477888
aF14.992098168443125
aF11.73611589786402
aF10.06631794953608
aF9.141507718711543
aF8.453804379090679
aF6.831876137062593
aF6.733187477015277
aF6.684457074915893
aF6.473182435861378
aF6.000856982823994
aF5.671927131367254
aF5.577885315223195
aF5.332196477316995
aF5.237485111731783
aF5.204964990880998
aF4.324255938881838
aF5.618306818105967
aF10.744294043492394
aF14.782443539296509
aF6.60599951311404
aF16.43549052771677
aF8.383028264471534
aF6.500238636151442
aF6.0070770040589
aF11.649651277558437
aF10.7169401216816
aF6.925963324534233
aF6.686400856233583
aF7.172845256548192
aF4.659457245485892
aF7.8213267084116325
aF5.737656982963755
aF2.919397776024061
aF-0.1036042906705734
aF-0.1045678583955399
aF-1.4397149512677698
aF37.46008765935564
aF30.455688397046615
aF29.807818966640696
aF29.331381241940843
aF29.137448616870714
aF24.21766895244577
aF20.303503395141565
aF20.22124294984317
aF18.97546724038144
aF18.721248192228405
aF18.045081636648515
aF17.524310249313256
aF17.236185249531207
aF16.798264105255708
aF16.400018579697658
aF16.158442772738194
aF16.095191254367194
aF15.910132597274494
aF15.537617175820195
aF13.950887192612136
aF13.908750507069874
aF13.59252308382544
aF13.534047802986196
aF13.024380638806095
aF12.811596219119707
aF12.790931273152818
aF12.718281043938275
aF12.211447125121147
aF11.961912384880776
aF11.903496214866307
aF11.880965178028946
aF11.804572959013147
aF11.770917246331338
aF11.714284033062064
aF11.592807168095508
aF11.538624149473783
aF11.495315294841651
aF11.488176875412679
aF10.977537559524594
aF10.96085590285841
aF10.835887810521298
aF10.754535198635967
aF10.599266871377964
aF10.541391442379732
aF10.435167534602213
aF10.351551078914893
aF9.988981502004156
aF9.736509549715556
aF9.575771043407297
aF9.51381803801554
aF9.447072609072734
aF9.43884402924146
aF9.430216860138293
aF9.178084828594338
aF9.096941992406547
aF9.006832967747659
aF8.840629025272873
aF8.7980737247754
aF8.686580972606285
aF8.653356377059593
aF8.563253932872973
aF8.482192233156468
aF8.450556548283162
aF8.32467762771184
aF8.323288978903646
aF8.28778198522515
aF8.275383794665942
aF8.242964396040733
aF8.168072638496566
aF8.003074464689202
aF7.919356470823819
aF7.8531162741857985
aF7.666641443935793
aF7.5988605493146375
aF7.376111171022755
aF7.1816438375259555
aF7.162249100709198
aF7.051376806111053
aF6.887903523551395
aF6.8207274134026425
aF6.775101290259572
aF6.734176379682856
aF6.530350918017426
aF6.418890983229472
aF6.416918424341638
aF6.358582092003103
aF6.307415755600792
aF6.19837542902278
aF5.912192502055326
aF5.864066158338593
aF5.841307513770511
aF5.737296724913758
aF5.7301894752706914
aF5.631051263046541
aF5.629669770370785
aF5.458837042129546
aF5.444872786443045
aF5.380534005124403
aF5.320588879382654
aF5.314922836927268
aF5.312400978358316
aF5.29577572858057
aF5.2846463888894
aF5.283392550169169
aF5.210413483298479
aF5.1678170059283355
aF5.153005006694044
aF5.1298669283318175
aF5.1207347132117995
aF4.087129387721573
aF3.820317714652933
aF2.4255535227846683
aF2.38660540395833
aF-0.4349483708361353
aF-0.4775770991092811
aF-0.707579756811438
aF-1.9224235041722917
aF7.889435097490892
aF7.277249481856184
aF0.20422229884238244
aF0.04559890527196567
aF0.04052090283474992
aF0.009893168338657264
aF-0.0170827938360941
aF-0.020205357936346043
aF-0.03370072648416105
aF-0.03611486885868943
aF-0.04911449563517252
aF-0.060628851067384186
aF-0.0614821382664096
aF-0.06979041390860258
aF-0.16193850143129468
aF-0.2046658971157434
aF-0.7526192723264841
aF0.22109416703951645
aF0.10726264732968664
aF0.022313463246111914
aF0.0015305084409540182
aF0.0006743809904279099
aF-0.001060810571820849
aF-0.002858489958727993
aF-0.003862472126827109
aF-0.006200925710033521
aF-0.007119276483671191
aF-0.007263763549293966
aF-0.008435086404341116
aF-0.011138858418154865
aF-0.013551384133317176
aF-0.01473222756074165
aF-0.014895827059884513
aF-0.01609098822793788
aF-0.0175762566679688
aF-0.020415478270786488
aF-0.023645549570012254
aF-0.030103356614782632
aF-0.031629848660099755
aF-0.032545842701765096
aF-0.034602037155552004
aF-0.03704977142738794
aF-0.08062635309056589
aF-0.14750001254870804
aF5.953076002838148
aF4.5498044505583115
aF12.231453113316293
aF5.770934675373399
aF5.509181459763981
aF5.305930754590497
aF4.972310479700028
aF5.387379041843671
aF6.246657629770733
aF8.975864981141537
aF8.694428524197336
aF5.851680235030005
aF5.654045741341005
aF5.37765314896462
aF5.332695632175888
aF0.006852255361753273
aF-0.003021962277855627
aF-0.0041711222770568004
aF-0.004196863854432554
aF-0.005114032980492122
aF-0.00944366415202968
aF19.04673258842332
aF0.007304747050269123
aF12.268298585566859
aF5.7431995008213255
aF5.55192264685128
aF5.2465294761532855
aF4.861195944553097
aF25.645870220905792
aF18.62836370445334
aF12.833277637267143
aF7.200338318229652
aF6.822398618460218
aF6.660153334040137
aF5.8668271531044365
aF5.7649400889720575
aF5.650785542110057
aF5.5385720251776185
aF5.46989050940429
aF5.174860970768653
aF4.900280031072363
aF4.472825907045603
aF24.717659717819405
aF18.429011911877343
aF12.595394059806594
aF7.110880299544379
aF6.813002083933616
aF6.679462079102067
aF5.9460355756144985
aF5.681522529304073
aF5.637934644372924
aF5.5010321478003705
aF5.336141484320644
aF4.837653047413995
aF4.789273204415286
aF4.422906587872751
aF22.665417658106165
aF15.363294630490358
aF11.346977532737426
aF6.2465535867043265
aF6.014607690906796
aF5.8257893210946285
aF5.553386457221474
aF5.301537825184981
aF5.061193829098898
aF5.014214132300514
aF9.953224783075964
aF8.99799145394981
aF7.263020091608705
aF6.434541274102202
aF6.3898770726788525
aF6.263371544584527
aF6.0871335503425295
aF5.717623182257537
aF5.3131622840655846
aF5.214745899922175
aF4.274000938417016
aF12.682391889611194
aF7.410517990141151
aF5.776143022431487
aF5.367090603109887
aF5.0921036956587615
aF12.155961173316726
aF7.642309934726796
aF5.617465052487731
aF11.870920919027085
aF7.8284402813927665
aF7.289509071205473
aF6.369040049040057
aF6.199126091096719
aF5.9253246076015325
aF5.7503655920044014
aF5.68613456755272
aF5.569514751526642
aF5.240389172553702
aF5.1353216199201395
aF4.7220463082801
aF4.619060345986414
aF4.375304133660628
aF9.768292840481553
aF7.452529100570253
aF7.443568245966435
aF6.7964159555627655
aF6.440880589643219
aF6.271871616104714
aF6.128672575989977
aF5.822581201247264
aF5.3745690575927
aF4.974433958298454
aF4.664709544101047
aF4.293005063584668
aF17.64257784157368
aF14.142523148057858
aF12.772532745955058
aF8.919353465787715
aF5.738653064752837
aF5.63790553650453
aF5.534086236765756
aF5.034988246596759
aF17.981674040325522
aF14.131478321354376
aF12.35393581150456
aF9.089539363144947
aF5.695261342098137
aF5.635083563198861
aF5.4265945825535065
aF18.587276080280077
aF14.611384890792019
aF11.766738762734663
aF7.2691887310783825
aF5.996034104614883
aF5.5733998920119285
aF5.1183841059208035
aF18.75376552038274
aF14.6379906572732
aF11.943855995872505
aF7.457087505329684
aF6.001655912617006
aF5.572805869355422
aF5.036714686083451
aF22.868587703773308
aF14.655296384519145
aF10.578373683567674
aF6.947617187287088
aF6.67175422313957
aF5.830607314705546
aF5.662716479636179
aF5.585382047669264
aF5.381282745369162
aF22.611972532741852
aF14.701647768244106
aF10.434351549243313
aF6.590954011934715
aF6.3884547900751
aF6.066995762133278
aF5.976155404287519
aF5.616110916195356
aF5.265955921703027
aF4.738890892114775
aF4.421187984357382
aF20.71245066463908
aF15.345839845719965
aF10.32112072475396
aF6.382098558554323
aF5.902866043938958
aF5.53869123703076
aF5.484404319840336
aF4.747130830611568
aF21.067472206434505
aF15.522284584207465
aF9.501403683184432
aF6.9261424037283374
aF5.6134473088364585
aF5.417832016446462
aF5.101715460797644
aF5.303501235354597
aF28.39855216052091
aF19.40747006872331
aF10.894407297887607
aF7.824694539165745
aF7.321282993984447
aF7.184215076893895
aF6.589619072361047
aF6.481813220233523
aF6.069439254839902
aF5.984354423935401
aF5.731636151618122
aF5.099019198205362
aF4.593207686531727
aF28.37980287855859
aF19.373555294579386
aF10.840897763302054
aF7.766843087099415
aF7.263665617875838
aF7.138476837332032
aF6.4731382718735695
aF6.355661948547258
aF6.1058875981864675
aF5.746508862436304
aF5.688016734244112
aF5.021738668790968
aF4.502441818542149
aF-0.05430087186816933
aF9.50722125316365
aF8.972329944173499
aF8.700811114613929
aF8.015105057657347
aF7.9555732515300015
aF7.744266211787455
aF7.6018103152059195
aF7.279776229347467
aF6.687075626384256
aF6.658935409315758
aF6.495748751165463
aF6.23193502366512
aF6.21253491248068
aF6.159252447167297
aF6.09290060896736
aF5.972786281190037
aF5.900970653522776
aF5.8698727218652325
aF5.712131794427951
aF5.665203684544026
aF5.565402293153903
aF5.563877673419986
aF5.547246005272352
aF5.532871008861644
aF5.48834281833569
aF5.414094833240185
aF5.401549191285484
aF5.352165187202828
aF5.343044251286673
aF5.2737268618902835
aF5.250667214576156
aF5.228440266518113
aF5.1665743488337625
aF5.153873389632339
aF5.137607127096173
aF5.133870527396651
aF5.065335761025934
aF5.058126103924354
aF5.033342103782078
aF5.02328160301315
aF4.997323302654882
aF4.954762993595205
aF4.690633723387965
aF5.609715020445652
aF4.5370887612760615
aF4.832016057999289
aF4.4517007302328935
aF5.1004682219557544
aF4.696296945449689
aF4.850645528057021
aF4.812223017039765
aF4.9981107815880375
aF5.0822563041563225
aF5.338487174056375
aF5.6575174699439525
aF7.506110420027262
aF10.168665934754868
aF6.11250984487206
aF5.920227014903673
aF5.486499898868199
aF5.431039524025401
aF12.531531468717407
aF8.907515788910061
aF8.477924517045647
aF7.73381574768745
aF6.877452616918052
aF6.7927253493912065
aF6.602376583677996
aF6.068775558260969
aF5.6837451948597035
aF5.4796102611729465
aF5.25463351525766
aF4.979663238909466
aF7.209801613791977
aF6.989881889838434
aF56.1876077368471
aF49.49369079710015
aF40.224179683051936
aF26.53507443589727
aF19.88984673156094
aF13.650568188473544
aF12.269402322497195
aF12.209764765653839
aF12.056130598390824
aF11.632562758672796
aF10.69584798465976
aF10.58647793719514
aF9.86896466083896
aF9.774167331612665
aF9.643089844786953
aF9.12754651274526
aF8.961900702459257
aF8.541127004849203
aF8.246984610120611
aF8.231454479242249
aF8.03813690680242
aF8.024551038085233
aF7.243686519296394
aF7.233259280605985
aF7.2317769089907165
aF7.102710048402398
aF6.880078905155214
aF6.603483183176395
aF6.596114468008365
aF6.4163175404581825
aF6.2195016188553085
aF6.109063731614331
aF5.838331342212106
aF5.646623842677182
aF5.5468975957969056
aF5.151473481797863
aF5.036994727529484
aF0.8658760020867792
aF0.2430214382537753
aF42.716189691834586
aF37.12260155154541
aF35.822438072800814
aF18.251974897181615
aF16.594489147192608
aF15.812430467711316
aF13.256775963983452
aF12.266086897141086
aF10.42044033584356
aF10.040758495312108
aF10.017838980324306
aF9.957067726541519
aF9.143370951424947
aF8.661113160884128
aF8.517647642159746
aF8.2990607804155
aF8.105824035131121
aF7.725716872100506
aF7.249901769525177
aF6.691107725895575
aF6.5585592472124885
aF6.263158939483388
aF6.251643886814881
aF6.022356803293428
aF5.8835555160646695
aF5.806787779861763
aF5.724116999480216
aF5.334099687430464
aF5.300815911771379
aF5.271800918775074
aF5.184337433308382
aF61.748911423603936
aF54.661177898364585
aF50.60829543490574
aF29.661833777833362
aF21.07740708439657
aF15.689533260212775
aF11.96940119445691
aF11.89238939873022
aF9.921996994425447
aF9.34737805620845
aF9.02786401148368
aF8.51978603399688
aF8.378172712862384
aF8.335835777387079
aF7.979349965475893
aF6.902763925530663
aF6.534301292023691
aF6.3103036876481235
aF6.279962376505036
aF6.1011160971851135
aF5.944827106932923
aF5.232702022307981
aF4.904460460515582
aF59.51490148423172
aF55.06545740137863
aF51.81442603253647
aF21.822789827803135
aF15.190425533752904
aF13.26644835861155
aF9.458443203368844
aF7.754869739131577
aF6.954814945014799
aF6.644539601755332
aF6.440415668732354
aF6.291285303357393
aF6.232108991966068
aF6.161446326647254
aF5.7628452855628165
aF5.723518808163543
aF5.226775401430689
aF5.168542272506238
aF61.34092404897454
aF37.684431098318775
aF31.593437814327327
aF19.736961151391526
aF19.702377297335275
aF16.836957323195268
aF16.57686349391457
aF11.523531074663738
aF11.4840611353876
aF11.105537616382813
aF10.4687951200845
aF8.523467815988855
aF8.470327537671157
aF7.9558804672794405
aF7.626299148915183
aF7.565474459638734
aF7.4941337735638776
aF7.4590560337183
aF7.166901138529107
aF7.088828533212311
aF6.682717754449582
aF6.478353722817088
aF6.317260012536023
aF6.247596501321354
aF6.234064025184939
aF5.698830128810786
aF5.571737754157634
aF5.525508700130018
aF5.5072543438601365
aF5.253306740032086
aF5.141428676655694
aF5.139941425801588
aF5.095327079022941
aF5.004393898039514
aF4.768386975062733
aF-0.5426081182876158
aF71.16325898322431
aF57.768274997332796
aF40.16511912913744
aF28.55424624773455
aF20.31460752303531
aF16.32791601284142
aF14.260932935076935
aF13.412978858458835
aF12.69538770540457
aF12.405740561427226
aF10.808672749403033
aF9.990578299902117
aF9.859441801407336
aF9.619524837299966
aF9.504772101636354
aF9.154035230232585
aF8.09141361593538
aF7.893082858159087
aF7.883681064567756
aF7.755938137488947
aF7.619653799493119
aF7.537640528943694
aF7.431333579085907
aF7.144694541965723
aF6.7352363252259275
aF6.576893061689242
aF6.488126736908607
aF6.469597112962798
aF6.3371925172125865
aF6.104411574187553
aF6.058200038551626
aF6.0151447670554825
aF5.543435376956032
aF5.4777805205997225
aF5.416286077154987
aF5.373307237584263
aF5.360629683877219
aF5.07317792620201
aF-0.006242363733457486
aF17.851097433021234
aF13.393259482190313
aF10.070324793001737
aF8.429996628920822
aF8.332891238397602
aF8.099019313235774
aF7.877122448948711
aF7.562951021105545
aF6.689378981079607
aF5.205506480457955
aF89.15775795714407
aF59.30829341315965
aF25.4292594388661
aF24.192527925374858
aF19.70100079633389
aF18.339986029898352
aF16.99727671975198
aF14.897445572607147
aF14.368286153747315
aF14.082601048163502
aF11.459183979816954
aF11.415190264056784
aF10.564328308591307
aF10.321299136520576
aF9.014459736982504
aF8.303650451378157
aF7.858872342021633
aF7.4843291370095395
aF7.304221711002518
aF6.975408336746821
aF6.739251122129179
aF6.336512436046702
aF6.167478544499749
aF5.716150587293294
aF5.026588363248532
aF3.8195784834276814
aF89.68497893240541
aF69.73711156849438
aF47.372819868939885
aF31.39511837821332
aF21.652838869670052
aF18.88299083288401
aF18.40568277483017
aF16.715295194036056
aF16.61094907392809
aF15.596080810508282
aF13.871802133679203
aF12.413234428740836
aF11.582110337050553
aF9.774027830595571
aF9.38919659062178
aF8.741988197644073
aF8.713744226276207
aF8.32194021693379
aF8.122170606400037
aF7.752914482559552
aF7.0673284080656655
aF6.0215527132677344
aF5.9646261010205075
aF5.860688995207113
aF5.751638617964134
aF5.3689162346642725
aF5.058256143845756
aF5.032973912933506
aF99.88586742758258
aF51.30053483421956
aF39.530023036307504
aF39.47990935564343
aF18.798221080473983
aF17.556523397567606
aF17.44340803925039
aF17.35369484361621
aF14.293906079973006
aF13.552414251625773
aF8.357435296026424
aF8.09985969932942
aF7.424322498486989
aF6.554976152435793
aF6.365189577855936
aF6.3550687071915375
aF6.213606896763134
aF6.01127002306891
aF5.7939497112695335
aF5.461369349767217
aF5.398134795469854
aF5.196513146555908
aF133.25061865357642
aF84.05937758184923
aF79.15510070358364
aF56.20096074304957
aF47.318388619613565
aF28.176048887473307
aF23.100475705895057
aF22.161955568385444
aF19.41770698585727
aF19.00061260572072
aF18.15895003605612
aF17.069259233840132
aF15.621243012886946
aF14.216766285904093
aF12.266354252736704
aF12.245720319273214
aF10.43702615121925
aF10.049277406553475
aF9.819845501869585
aF9.819089321652779
aF9.25251421189028
aF9.201883777079118
aF9.000230390680043
aF8.995153059057209
aF8.871271431923804
aF8.590520344574047
aF8.452516395800702
aF8.30566829101445
aF8.289929456878351
aF8.012792403492455
aF7.554427144237615
aF7.045826957264652
aF6.891555725614767
aF6.621357717760412
aF6.612634251582245
aF6.588402411426415
aF6.3451527880059135
aF6.2555118225623785
aF6.208246421107564
aF6.1058881713151525
aF5.898603194833144
aF5.888270789731925
aF5.633997798993459
aF5.405271033803333
aF5.276256301773705
aF5.060944965535825
aF1.943032800192068
aF311.6783662621952
aF47.00669268718074
aF30.12895820655037
aF23.45125384614818
aF18.531754545291477
aF16.277554771672403
aF16.21171085562858
aF11.01363776527776
aF10.441207767423396
aF10.166159301661576
aF10.113497493246939
aF9.734970865221275
aF9.541424808180087
aF8.513003496225293
aF7.271252084994693
aF7.1618073872853305
aF6.9084093327381035
aF6.58553509249871
aF6.224428331170678
aF6.149056079890583
aF6.093851327125231
aF5.935631327528482
aF5.932706809852838
aF5.791327572345517
aF5.613281508971236
aF5.320162094989282
aF5.163616888830922
aF5.096502030583818
aF5.003304000523926
aF4.989968322235329
aF4.4656198157568285
aF20.865852058567647
aF20.43066071739497
aF18.513102898846515
aF18.207411020855783
aF18.006705552002217
aF17.648781471519136
aF17.38437975666489
aF16.744262330560638
aF15.149785850429248
aF13.200977578258755
aF9.625320486615317
aF9.526425375726024
aF9.510366575954892
aF8.240505876999952
aF8.170766664433787
aF7.529779102750925
aF6.4704608040604725
aF6.441080478956309
aF6.033883779413233
aF5.767137221975823
aF5.6648062609515355
aF5.575742768551826
aF5.221117271615472
aF5.031212769108982
aF4.989583167365871
aF446.9847136806998
aF37.2692414638306
aF17.206522868950156
aF16.882797311862927
aF15.062954407906535
aF14.039732784522384
aF12.756466488404213
aF12.576540042804888
aF9.7525966705742
aF9.593973468430383
aF9.054640451902962
aF9.046089233597863
aF8.64673338681921
aF7.562714556701313
aF7.414289223548112
aF7.183250336806245
aF7.010910153775791
aF6.733653954378292
aF6.220559982105301
aF5.603941859277103
aF5.4700704589443765
aF5.312767694225472
aF5.141238882359394
aF75.08404117448886
aF57.47324859702386
aF26.546761864713147
aF21.68770987221027
aF18.08486124329019
aF15.28055897966022
aF13.770454318694286
aF13.076167897255448
aF10.1674959908095
aF8.335267827884621
aF8.129820362163503
aF8.082781016920858
aF8.061442743620589
aF7.198991134585603
aF7.066661917397732
aF6.579407923935507
aF5.809326571622345
aF5.796046843838369
aF5.693332976742545
aF5.62224406217631
aF5.575191612720567
aF5.406256845533991
aF0.6536572262056739
aF0.5658851695345268
aF-0.2130688482305999
aF45.6196448521975
aF29.903431212000164
aF20.21749051764812
aF16.243216189317778
aF15.719542934541293
aF13.18588367960202
aF11.91471370224014
aF11.265685915103711
aF10.057874859443316
aF6.602519069741511
aF5.461823358893369
aF23.997198215580827
aF18.62911544512984
aF13.585707837303536
aF11.185136757543207
aF10.57936642522783
aF5.005079461255635
aF4.655198230492661
aF13.326371269292967
aF12.9623985281095
aF11.138069613596434
aF9.9621546911911
aF9.782045845590591
aF9.693392266324812
aF9.454952176843255
aF8.639444379934146
aF8.568178160552668
aF8.475742506562574
aF8.30231234643026
aF7.9797238955543754
aF7.640469943764896
aF7.507605789071322
aF7.384695677267642
aF7.263304725887398
aF7.068858752467616
aF7.056442893030527
aF6.996488219103706
aF6.658314600912418
aF6.567887554647667
aF6.197225749673133
aF6.140106282891482
aF5.899838198723322
aF5.855744033142285
aF5.812082624100579
aF5.667092590696509
aF5.359227796669765
aF5.319333258302223
aF5.220636811107178
aF5.169132234924134
aF5.167658273461135
aF4.3416355004277
aF-1.4588299252773518
aF34.652058428476145
aF24.44663670392468
aF20.976458981117663
aF11.324165361914757
aF10.19885704115914
aF8.592810505153176
aF6.606404917355094
aF5.956837219485651
aF5.5589086828895775
aF5.522658496327997
aF5.38902048618853
aF5.273669182217279
aF5.1380093015247335
aF0.017622497907403573
aF-0.8628064367431139
aF-1.4160682115845034
aF362.09367245767095
aF19.40912022100312
aF19.056463844380954
aF11.158712353140896
aF10.451554915707836
aF8.310106587385002
aF8.180159222665463
aF7.837792633062608
aF7.744940817034063
aF7.738322713564961
aF6.686046154674218
aF6.440891858744744
aF6.424225176487178
aF6.0570114285572325
aF5.525305463189727
aF5.027130698370871
aF4.697046946110871
aF3.0477069083132453
aF42.58651605796033
aF22.654417349256605
aF9.207264605454274
aF9.099938637995828
aF7.252761621636437
aF7.244704294698213
aF7.170732027440407
aF6.696184542511031
aF6.662558916823106
aF6.0218450364057805
aF5.710897895400206
aF5.6586412831216295
aF5.615706939984671
aF4.90300130807425
aF4.636123920949504
aF0.06705416408937473
aF-0.7908593015758087
aF-0.924718837369822
aF51.629839270153745
aF15.691781554220029
aF14.9939571403899
aF13.296548249992554
aF9.874428736732245
aF9.638251335751763
aF9.477521793205275
aF9.030088854345953
aF7.2517814064687265
aF6.623465864028182
aF6.561042636915666
aF5.904266761521977
aF5.745154087658384
aF5.591702350721611
aF5.045080849583004
aF4.685331954111434
aF18.55998507166684
aF12.352973977527068
aF12.168409064526408
aF10.965874763024765
aF6.123020268923755
aF5.624490716322054
aF5.388933637225629
aF5.386232561689007
aF13.371999987606067
aF11.37248031798494
aF10.863677088805106
aF10.274303237943206
aF9.657727794835235
aF8.418315344966919
aF8.387146109109548
aF8.348092090397946
aF8.34286453402346
aF7.691401184822401
aF7.271156143223126
aF7.177016864766192
aF7.1618715295768
aF6.8062252208834915
aF6.763517616838688
aF6.553172456529271
aF6.275410999794826
aF6.256239624124168
aF6.244432144733553
aF6.229158712266967
aF5.998073866489373
aF5.917293346891902
aF5.910896032798675
aF5.824679479139559
aF5.638180304770322
aF5.569949135260803
aF5.505579006989811
aF5.471001958479286
aF5.407815480505347
aF5.3950797723205115
aF5.362635064285144
aF5.295068799963958
aF5.0838064445409925
aF5.081062423863979
aF5.071013861733068
aF4.9264353421325
aF40.87029967721409
aF38.395389228044635
aF32.72747793706443
aF31.0483683736236
aF30.295638134677077
aF27.63700516822843
aF24.11356036441349
aF23.841973973033642
aF18.524815334660694
aF16.683257078009255
aF14.617205868505746
aF13.203833711536536
aF11.661588729451845
aF11.516567359127974
aF9.316298251132997
aF9.178915911889543
aF8.436428259517086
aF8.06834086573959
aF8.02827558320684
aF7.813382259797169
aF7.378189369378925
aF7.247235734168201
aF7.073893931697733
aF6.87793733758587
aF6.569123451070813
aF5.762068774545465
aF5.343427113904888
aF4.566305845083446
aF0.5960124065028451
aF35.64641115026033
aF32.791334131177265
aF31.75699624660481
aF30.95201079700748
aF29.409259460677124
aF28.884637169725064
aF25.08964674038015
aF21.35027005127956
aF19.332439532818974
aF16.64941096207033
aF16.139410168891054
aF13.26935979297776
aF11.80648675937732
aF10.710478208151477
aF10.610857988682481
aF9.120172140901039
aF9.082691171613362
aF8.958882012170374
aF8.61140246240983
aF8.221663786886612
aF7.763966325185941
aF7.388470513245683
aF7.381865578929098
aF7.2474241215747055
aF6.88449862979968
aF6.767346811559684
aF6.493799930908755
aF5.9034918833437855
aF5.835328118085668
aF5.719287753236474
aF5.556776560198982
aF5.447197966371854
aF5.273315571144716
aF4.620766636668043
aF0.7587061186834432
aF22.92840384519112
aF17.00899272786953
aF15.958536830199995
aF13.211287715629027
aF10.463739667407765
aF10.131837373160783
aF9.88642524678212
aF9.36956640773145
aF8.71193063394361
aF8.579420671020094
aF8.045872915976787
aF7.2989131910709215
aF7.209275625495334
aF6.425312669806937
aF5.8074437792359825
aF5.667871294939643
aF5.568290196215006
aF5.524343601650812
aF5.3157639977521765
aF5.268614826461888
aF5.054152729562652
aF5.036494372903875
aF5.0172628812623135
aF5.0143376544540486
aF4.1182651692690415
aF19.31769449814094
aF19.2175681431684
aF19.208470612830972
aF17.084243815041873
aF17.052930684549054
aF16.841129035222558
aF11.061687974427283
aF10.813174585626092
aF9.91441040641551
aF9.1845760563106
aF8.802642482301065
aF8.759651652836522
aF8.185283098700364
aF7.901060411989273
aF7.595627174729928
aF7.375405693167241
aF6.977996615313933
aF6.078481341378852
aF5.889256290432741
aF5.509227191118886
aF5.275071732778126
aF5.222854318273672
aF5.126174524281921
aF47.542581524208714
aF36.45206967957672
aF28.05728940098945
aF24.91482547691332
aF24.254978435390342
aF22.200234784003786
aF16.238159426924714
aF12.610847240585393
aF10.94176279305323
aF9.790330134587627
aF8.028701855962549
aF7.2434308387701085
aF6.631364867007407
aF6.391184027712235
aF6.0638541099207774
aF5.719222479817822
aF5.635747569020412
aF5.590178176784227
aF5.3281834159915125
aF5.085466928244479
aF43.945506488842675
aF41.18524147739584
aF39.648950213830645
aF38.347904063731626
aF34.90540185008016
aF33.74049210663144
aF32.28912461193684
aF27.322939671700002
aF18.162280127164593
aF15.527387811652439
aF12.586584716736764
aF11.879602507281588
aF11.678270377033824
aF11.147743024497364
aF10.939743419685797
aF10.687231173789913
aF10.610187585599702
aF9.793820944515346
aF9.580768041522463
aF9.556431465307458
aF9.062647622179687
aF7.876335917919987
aF6.234397997679283
aF6.1987766474579145
aF6.176522221839484
aF6.0985753762293
aF5.67422097523387
aF5.450805210689187
aF5.182684101479281
aF4.471010633130903
aF0.4930366880580019
aF45.30170246011517
aF40.20287106572589
aF39.44737928221448
aF34.70309017686569
aF34.29363853107073
aF34.128649729439005
aF34.07069025530797
aF26.02197517467433
aF18.609561532857573
aF15.825584334347374
aF14.341646190078174
aF12.651444471554086
aF11.858684152679551
aF11.618776670666044
aF10.959594086488119
aF10.910648525887261
aF10.853461490210718
aF10.810848449943318
aF10.543190345883744
aF10.122511171137246
aF9.901426709482434
aF8.696130877035625
aF8.241848091410477
aF7.623302796505202
aF6.2477621108381065
aF6.186806265543476
aF5.503367690878111
aF5.480633211141945
aF5.394806285614026
aF5.3904313386103295
aF5.179106473034238
aF5.041536850214016
aF0.6562517904705346
aF34.91090414949647
aF18.85335495612262
aF90.25658501025173
aF22.439656682864502
aF16.5256626328671
aF13.056155043320615
aF11.667948909067176
aF9.673847785218145
aF7.434306331698165
aF5.2733430475632455
aF5.167075162359137
aF3.6733407736632633
aF-0.6072132561857424
aF651.7498839857637
aF261.03567691675624
aF186.01314076031437
aF41.29325057189188
aF33.81754005252612
aF29.775770268790698
aF21.20787384530276
aF20.390732211446334
aF18.223176369802413
aF16.478611567935992
aF14.546177962419426
aF14.360696627311395
aF11.533161666159284
aF9.926882237467552
aF8.007087866217885
aF7.151558644858547
aF6.922115340285728
aF6.672339912942258
aF6.549999703207265
aF6.5427664180830805
aF5.772405179478063
aF5.617223563560262
aF5.581611378619214
aF5.472966390042488
aF16.937907889317056
aF8.881538500136347
aF8.052685853620298
aF5.543853348784057
aF447.0247752917537
aF44.93112731962062
aF23.773392511397844
aF22.49649647008289
aF13.76385746931743
aF6.19919404400795
aF6.185843514231701
aF5.310647932377162
aF5.111672505106916
aF15.657900201836679
aF6.128446241628262
aF5.377017979200533
aF79.67963805839051
aF62.25198452890904
aF61.52199109132247
aF37.44930813301335
aF31.07763699806468
aF18.57509330836796
aF11.187454933003151
aF9.764549190510165
aF9.639718861933108
aF9.565109132685592
aF7.497298363749063
aF7.18691800885137
aF6.570450924937376
aF6.5065095990394894
aF6.3792139702114525
aF6.1576228401183695
aF6.059385248151453
aF5.296757581462202
aF85.72015837531966
aF63.296711999092075
aF34.379595195819824
aF13.32221441820233
aF10.053078093032434
aF10.023636102847997
aF9.442065953677057
aF7.696402724656528
aF6.229843424628018
aF6.027675414704174
aF5.933157149180918
aF5.722234461716816
aF5.393918616452089
aF5.110414329053747
aF5.106748377759094
aF5.106632514975442
aF-0.11512546554995128
aF224.93221836726826
aF18.334981701862976
aF15.357613206473598
aF12.1656761018026
aF11.033101830767482
aF9.302810764445645
aF8.432381690973799
aF7.928838411305128
aF5.385177291627096
aF5.170275094542123
aF4.650435447534929
aF39.293747430293
aF28.76936766585448
aF18.793744734330065
aF18.011074543791363
aF16.963423671387787
aF16.831383261855713
aF12.9257371119837
aF12.684116044621234
aF5.423505542899744
aF4.40088196428554
aF0.1365328417989453
aF13.327628594139457
aF7.036209505753411
aF6.3238809013482
aF25.369040266573467
aF11.106513221765402
aF9.419857915644831
aF7.693370368114097
aF5.964524895922007
aF5.903033509795509
aF5.338990176223157
aF55.88694442452944
aF24.59685714277172
aF16.863455519215698
aF11.064055119148328
aF8.577233344930399
aF8.144358982849749
aF7.692133514749448
aF6.461685600340912
aF5.050661348600288
aF47.4769694675245
aF20.004007176140014
aF18.598857849064
aF17.225652936692743
aF16.300803655027973
aF14.803884455050767
aF12.154664521193125
aF10.506543280839756
aF9.366829646814407
aF8.430876795886407
aF8.106479069767238
aF8.002574055056442
aF7.801711357593048
aF7.12607482561322
aF7.046737542775616
aF6.566421549895862
aF6.550986968658947
aF5.769334566499
aF5.483747774313396
aF5.000271684927927
aF238.86356496016788
aF14.308381023040194
aF7.0784695218300255
aF5.295792722513197
aF5.260764740163025
aF5.176307770846966
aF5.166672671961509
aF-0.05349283438513533
aF237.65262005587596
aF17.408699212805555
aF16.879539240239986
aF12.786348123931761
aF12.231699440455268
aF9.746726677611488
aF8.587710976480832
aF8.486836704542133
aF7.587524225693046
aF7.325551642388858
aF6.55078635752033
aF6.478770307596773
aF6.0192099215104005
aF5.501977639942031
aF5.373235661691751
aF5.295489712234156
aF5.186451726723557
aF0.2256006667046699
aF72.24077833689088
aF30.714184399403912
aF22.336763875098466
aF19.301861873671523
aF13.932096774511043
aF11.035838412034423
aF10.898293013423354
aF8.538399771710322
aF5.716748115980233
aF5.433180832398237
aF5.337608022634959
aF5.259709876670648
aF102.49316151459264
aF8.982825309048119
aF8.975061697727755
aF5.194291247302613
aF104.92046308642358
aF61.046069667366545
aF55.37358139364671
aF31.32399936293523
aF26.66586264851934
aF20.732162847866878
aF18.772765004994614
aF17.670981775181012
aF12.160573904001296
aF10.195931536330711
aF10.04161037091684
aF9.668121084265293
aF8.022652164734959
aF7.528582913570943
aF7.3768074104701284
aF6.514656771522097
aF6.411529012392531
aF5.781822241825807
aF5.711632130185902
aF5.597645504162781
aF5.562875055540238
aF67.77526087406777
aF51.448850244510425
aF49.11371298752634
aF27.50956730601817
aF22.746586040116128
aF20.691108112421897
aF17.66855820277019
aF17.431348689107473
aF12.325081045169695
aF12.201157755484047
aF11.389177328441004
aF11.144040108675348
aF9.333491543362637
aF8.686225316708109
aF8.18131624723001
aF7.574565461679143
aF6.14361932767236
aF5.869875513897228
aF5.455565799120391
aF5.2967695170780065
aF55.508961166180455
aF12.163517549121769
aF11.147482196730797
aF8.845290266747774
aF8.449960723194069
aF7.882946773643107
aF7.4351644110789215
aF6.300481987799151
aF6.254417285916557
aF5.951536315538628
aF5.719219342576023
aF5.121506117195236
aF5.1112260059648245
aF5.1013077506660665
aF5.087778272079398
aF1.1882933670959963
aF78.96240913494212
aF36.16137489142937
aF17.281577524802568
aF8.3920133413061
aF7.824134675281446
aF6.1599853902173685
aF5.685439049681626
aF5.656611710612099
aF5.323879439500945
aF5.086958410307219
aF4.521073440772344
aF-0.009109625577688327
aF232.6609066245108
aF205.48489985095108
aF41.116637715803016
aF22.192239430438537
aF21.48016677845829
aF18.72251078530416
aF18.13913291917705
aF17.215292978505367
aF9.38751018873976
aF9.16823456660085
aF21.121100941183528
aF18.43097354868652
aF14.488052156094849
aF11.365294159743884
aF11.032334154130517
aF10.376788328825604
aF8.186980771418389
aF48.93961888282446
aF36.16043006230915
aF25.69982967808889
aF12.276822342785971
aF11.951151092506164
aF9.50006756119965
aF7.921106471329846
aF6.745081633333568
aF6.031885029618496
aF5.622132488214601
aF5.025662027863335
aF45.47941128701808
aF42.78403684877693
aF31.307425832209663
aF28.56288477382793
aF24.78483060268989
aF24.161149764136873
aF23.79637585708351
aF14.329383146009851
aF13.006191257756742
aF8.768837294171751
aF1.085148519993331
aF12.410916079255095
aF6.111581835276391
aF5.680005570281834
aF86.7392185015652
aF61.67387805112626
aF43.30780449806576
aF11.233102143080137
aF7.628301152887237
aF7.627562030746782
aF7.050170633890906
aF6.611222864393028
aF6.45566068403154
aF6.335116104118532
aF6.221950886861981
aF6.126056528135518
aF5.269595101857647
aF5.00960710305355
aF36.46673828094892
aF26.234805604325704
aF21.00018870080459
aF18.514383235599876
aF14.93644852196308
aF14.200786377680974
aF13.077771387627616
aF11.47150501571441
aF9.493479564445412
aF7.608467811759317
aF6.167969216484411
aF6.009697824372653
aF5.8733508943565855
aF5.827104364921119
aF5.7830612963907635
aF5.620517585279125
aF5.577200932329342
aF194.57368248229875
aF91.84704676368956
aF43.58130313782947
aF36.737261484320825
aF21.361109038668413
aF20.458390201028433
aF18.250160049557763
aF12.841919304803586
aF8.629153086438041
aF8.542552498610736
aF7.474226114511441
aF7.426596196385575
aF6.2637588927584575
aF5.851258099307656
aF5.637925540700455
aF15.483298377189016
aF14.4807187850036
aF11.518223854383033
aF6.592912783880534
aF5.386819946132064
aF6.822740584757995
aF23.621896239555486
aF7.112915124381313
aF5.814916940571044
aF5.707161804336624
aF4.029292562375364
aF-0.38787719857181935
aF30.162593477635323
aF6.1025044644156505
aF4.750307359906724
aF-0.2665656737354738
aF30.29004109303827
aF6.94773836122115
aF-0.29382405542343365
aF30.64507781737437
aF7.218148309579643
aF5.0871163972725615
aF-0.2522822702317837
aF5.175419971122501
aF-0.07695056387938558
aF7.679078080261397
aF12.695820758582814
aF7.100160001873343
aF10.618356783656392
aF10.296232190576783
aF8.55418409054105
aF5.621849464868409
aF5.51396656009011
aF4.794058994147378
aF5.216273316609322
aF7.495224529028765
aF6.6588342022874425
aF5.750122147298503
aF8.020848129099901
aF6.514604628945287
aF7.7114308230685005
aF7.288894994463912
aF7.790425043992848
aF7.713034210105437
aF4.172845711200347
aF7.71287723341566
aF7.288360049852207
aF9.612693378900012
aF6.695410129585331
aF9.591001487662616
aF9.318619610443854
aF3.5457444178144937
aF10.159857264374814
aF9.317501166772685
aF3.4813074003465903
aF10.879025678573608
aF9.174853651424652
aF3.6160614946229446
aF10.15985445490728
aF9.317125936202924
aF3.481477757728155
aF-0.007565076761712044
aF-0.024627748612301388
aF9.519959575882247
aF5.594543909339392
aF6.741052471867999
aF3.167301023879144
aF8.009208190918821
aF5.56083658146088
aF10.276879180685274
aF5.014192763722998
aF11.170111907622033
aF4.9781931620923014
aF43.179236559768725
aF28.65393304167298
aF24.787106993908186
aF22.749316299030326
aF20.722169464250268
aF20.092047568341968
aF19.079753779746987
aF18.56743601615865
aF17.018480617919632
aF15.671069734324865
aF10.86027238731983
aF10.306877038103657
aF9.614476069557993
aF9.330508540935913
aF8.88525369224426
aF8.194795991546732
aF7.935301414467091
aF7.831377978407978
aF7.7315587581293315
aF7.2778219052743305
aF7.2635345782034735
aF7.175273771397836
aF7.048978573703681
aF7.014780659158875
aF6.9558465490283785
aF6.9449046817285405
aF6.691639375482628
aF6.661165746795574
aF6.45665531478228
aF6.23056178371866
aF6.175873461007737
aF5.959220030076088
aF5.778662537107334
aF5.68610944778192
aF5.667390106191807
aF5.60210387415934
aF5.589948638877052
aF5.3567296565007565
aF5.3477036371553055
aF5.32400359608759
aF5.323508235203887
aF5.176891250608802
aF5.008039607528348
aF13.245093309202945
aF6.582129411237309
aF4.9013355457916585
aF12.787301431807153
aF5.407725939402021
aF5.330121313740468
aF5.238246156625699
aF8.875146422226404
aF6.307110394546182
aF5.136436892848754
aF5.321304718060909
aF5.48260119340889
aF5.502400535140628
aF4.690490614185987
aF6.782999997738861
aF8.061436269676719
aF5.235174635078403
aF1.1580746667565105
aF5.086196351120956
aF10.209303047943312
aF5.592412044140786
aF8.591479129393651
aF4.969730387499221
aF12.719330061762962
aF10.275000864014858
aF9.310316686979398
aF8.96652879019829
aF8.665217029687936
aF8.023415688906008
aF7.959411378278598
aF7.698513839843158
aF7.354822478520374
aF6.968695888005483
aF6.661119707526959
aF6.34736081859382
aF6.125824816705898
aF6.0924435725760535
aF5.99489252698112
aF5.97318069303199
aF5.8246322930685315
aF5.595736772206461
aF5.557358567299675
aF5.533493289466356
aF5.5261073570825445
aF5.335819056344856
aF5.273740318017652
aF5.249054033173572
aF5.148079296986272
aF5.139938737603222
aF5.137965865002008
aF5.060198851510108
aF5.008258586872602
aF3.137466856120826
aF2.3068066910206717
aF30.291528779144038
aF6.9476670839981285
aF-0.2937737734243898
aF0.0633158748318936
aF5.3867078212726005
aF5.212021186475175
aF8.34122554643168
aF6.84225189996483
aF5.6364721922398795
aF5.484938012851769
aF5.214859745458818
aF9.76500876321466
aF7.6658520928791605
aF7.59198026964957
aF6.541348824368888
aF6.307373160404249
aF6.129550375394618
aF5.944255714909528
aF5.737207556638662
aF5.734065683259796
aF5.474588105940963
aF5.421370708182853
aF2.3730329722842507
aF13.65254550116911
aF10.294582480637514
aF9.912587129651552
aF8.492464520913641
aF8.43528277036026
aF8.234497366771594
aF8.166987902010726
aF7.819646826432272
aF7.727735256140975
aF7.696951231981938
aF7.602908310852466
aF7.584199364675298
aF7.415653590322944
aF7.174639250957783
aF6.553618410722827
aF6.48501488960073
aF6.432068433474329
aF6.366391256534468
aF6.101993439792511
aF6.089625802951875
aF5.909125693518621
aF5.639227818811307
aF5.617438845983235
aF5.412848927948336
aF5.344270321289152
aF5.259715303048268
aF5.187431245252758
aF5.164626572668251
aF5.144104391930365
aF5.142593832749548
aF5.120259476951401
aF5.069760021839565
aF2.7032347001633106
aF-0.9972994990274882
aF19.234965405446587
aF16.087009975350266
aF14.52064203430973
aF14.451730846342171
aF14.446435005289988
aF12.472151823288252
aF12.459590229389178
aF11.680593772251706
aF11.553668349608474
aF11.272255535425144
aF11.195974112668624
aF11.180531063850813
aF10.972724440937734
aF10.76646858546009
aF10.623139561842633
aF10.571511903536337
aF10.543172370050847
aF10.011428256863313
aF9.321271000952919
aF9.087702220899603
aF9.072671118337126
aF8.912869352095285
aF8.861456306978596
aF8.709186245547746
aF8.687197833413249
aF8.678938147432032
aF8.449244822193648
aF8.232782154428259
aF8.181162620698505
aF8.061552726014838
aF8.060503024338322
aF7.878541856780815
aF7.839336535827254
aF7.5527340038399835
aF7.440899498618905
aF7.332205668354387
aF7.330901015030602
aF7.137950601185781
aF7.105737754448201
aF7.0913612893469855
aF7.090187493056178
aF6.8890194381577325
aF6.832036693864759
aF6.785761583161513
aF6.761425420051143
aF6.714121689936764
aF6.699801708032023
aF6.697093107136673
aF6.2299255961724285
aF6.203295265148124
aF6.044371669259218
aF5.897169491160343
aF5.7895986762102485
aF5.694147387539225
aF5.6478252954488655
aF5.621537941193648
aF5.5986610125887735
aF5.486143220221439
aF5.480821973260891
aF5.464398626591005
aF5.42827091250074
aF5.411139799402193
aF5.368507384946309
aF5.321700725370988
aF5.294831947763264
aF5.288877350861521
aF5.246065180821325
aF5.080168633548516
aF4.935350711095353
aF4.746328239741414
aF-1.2952739893091554
aF-2.1859655417010684
aF63.203528061709186
aF21.739579199626583
aF20.854042790758356
aF18.866984451171305
aF17.057840048675075
aF16.498780037267387
aF16.366669895302213
aF16.25762177839819
aF15.835111739500851
aF15.46061552921886
aF14.708139986520102
aF14.494161423936882
aF14.284720010005113
aF14.033323185256386
aF13.478491541932723
aF13.387691120193539
aF13.365803312822877
aF12.60336749693661
aF12.458568693160892
aF12.234718749473293
aF12.167300276074927
aF11.92489982217603
aF11.76646217484672
aF11.730947321220796
aF11.676178018472614
aF11.469079892064538
aF11.359595068620177
aF11.338265998092119
aF11.185363224397804
aF11.155046974116607
aF11.147716621186293
aF11.139402273497945
aF9.934519471640439
aF9.644993392532172
aF9.610011162335512
aF9.189004084437244
aF8.905844814041798
aF8.74935957757061
aF8.714755269635546
aF8.557510817841814
aF8.383597405901467
aF8.344019634327037
aF8.252967704523853
aF8.204683995061853
aF8.154367354555047
aF8.106531150271662
aF8.076608550122039
aF8.076173506142649
aF8.040020974711735
aF7.676113409053222
aF7.658124466793147
aF7.6090600861740025
aF7.600255567885659
aF7.510364792936773
aF7.450561242432465
aF7.142482181509031
aF7.083241923486682
aF6.820629669522622
aF6.814292881188508
aF6.775299834649546
aF6.738463070197589
aF6.590061813704778
aF6.46188423297162
aF6.405279782490277
aF6.322001712513847
aF6.278754638483523
aF6.20824562407388
aF6.206946630429819
aF6.157447440407673
aF5.990919250566713
aF5.976126680487622
aF5.933348516962394
aF5.93014840371655
aF5.9038005535063975
aF5.867273414127622
aF5.83610994298324
aF5.8341083133507325
aF5.822344711232216
aF5.764696186816914
aF5.738719330159581
aF5.73268933391394
aF5.6858467471217
aF5.599213737509861
aF5.572473322602546
aF5.5685055954244564
aF5.51521175516578
aF5.468260256707167
aF5.462434155681679
aF5.4222192872258725
aF5.338258855799276
aF5.327553015289936
aF5.2362890906606605
aF5.215023568213281
aF5.181278033770068
aF5.151470138705343
aF5.140703823872066
aF5.122930871429265
aF5.054503201056531
aF3.2982373525513684
aF-0.2377368309848934
aF-0.5619796252101168
aF-0.6268130586623626
aF-0.7417018941983925
aF-1.0431024930432744
aF-1.4704183635114851
aF-3.8881385532560206
aF105.47214689555355
aF36.141792835314064
aF28.26684195490715
aF27.06688254302557
aF26.74308817230245
aF24.338405862177858
aF23.007733410165372
aF22.158185803132945
aF21.328260970933822
aF20.729903224193077
aF20.724460931180726
aF19.466957298250087
aF19.427558781385454
aF19.003562445751147
aF18.745359574628484
aF18.600044592746183
aF18.51888299589933
aF18.30893264619503
aF18.20649183697862
aF18.147156520056267
aF17.945656815629388
aF17.62058552889339
aF16.086291902238386
aF15.612620255684796
aF14.109465249756019
aF13.330900010498965
aF13.28210291963796
aF13.132123701281635
aF12.752768189031535
aF12.691802873281395
aF12.607016252991194
aF12.499479108738976
aF12.295832485093696
aF12.182863909362107
aF12.117730506265024
aF12.095972928574124
aF11.970258920962902
aF11.876402527981027
aF11.735497294619355
aF11.721473601711784
aF10.969294952757362
aF10.271400018576985
aF10.108501512147617
aF9.84319030336532
aF9.594097849145003
aF9.49626976839092
aF9.468169345777824
aF9.417902360638584
aF9.29186082189645
aF9.24518828052663
aF9.149355542665267
aF9.102873832331555
aF8.974547602993871
aF8.792451418370314
aF8.549693192292349
aF8.416577331980346
aF8.387524182160288
aF8.380858357246929
aF8.294479367566057
aF8.288354702262739
aF8.23607334165251
aF8.163362914014101
aF8.120619717992376
aF7.916893928096722
aF7.732746449679017
aF7.656150999031437
aF7.598601779168884
aF7.470444386280309
aF7.382408761174642
aF7.378960619880535
aF7.363347886129942
aF7.269242270492892
aF7.160183105512906
aF7.112429241044707
aF7.078646718577545
aF6.8089841692907696
aF6.573929452133439
aF6.505487450555139
aF6.457469516055691
aF6.4145410792046675
aF6.330020344465913
aF6.226309405088439
aF6.189444347878691
aF6.073425204445098
aF5.990964028644129
aF5.975711422228968
aF5.914945473370613
aF5.879968976015798
aF5.8074359944853065
aF5.761575076328947
aF5.6876829956743125
aF5.593258550318628
aF5.579989384352914
aF5.565404533393428
aF5.560797042107604
aF5.490155956006347
aF5.448422384532778
aF5.406083820067384
aF5.3475890302231015
aF5.306294658606075
aF5.258139897570231
aF5.231049278589631
aF5.1979065444321595
aF5.1362234147718695
aF5.0801669972926735
aF5.0094926802103155
aF0.1971962897524145
aF-0.037632717765608316
aF-0.28784256356568033
aF-0.522149151169418
aF-0.584246291623855
aF-0.5851983664789864
aF-0.7094757396242505
aF-0.8981304367299948
aF-1.2878037937379987
aF-1.3534234546796036
aF-1.6414754385921635
aF-1.7129162320009164
aF-1.9456251740613264
aF-2.1404116656126417
aF-2.8261525210151643
aF-3.1830724824590386
aF78.73148102791684
aF39.01743601711585
aF38.39302649274897
aF35.03911232383645
aF33.98957515232296
aF33.70549774546999
aF32.28660174319585
aF32.06488031889563
aF31.786095827468408
aF31.50938425117207
aF31.426228898222803
aF31.154882484636477
aF31.041026196066536
aF30.974186899059085
aF26.79509990511093
aF25.91699916487956
aF21.20142902808329
aF20.75392890795686
aF20.231650301684336
aF20.08310713451683
aF19.730382886427115
aF19.258112161792727
aF19.185966911442076
aF18.982176025883398
aF18.91137871633781
aF18.665996641084252
aF18.61761655615601
aF18.11513404500123
aF17.76134939170683
aF17.140353991823773
aF17.085291425753933
aF17.06173861041806
aF16.164882473739766
aF15.882870267640302
aF15.861763122237095
aF15.44741729749591
aF15.18309178609739
aF14.668354312344107
aF14.610633178650716
aF14.486671263550072
aF14.13072205541678
aF13.851001989730086
aF13.645326914396618
aF13.626355960631075
aF13.342014379513927
aF13.174544771340035
aF12.598053095111025
aF11.842530849900982
aF11.721136791962055
aF11.578082116457415
aF11.413268317592511
aF11.138111056791361
aF10.941670364225669
aF10.813634723950408
aF10.808941201512912
aF10.593048964093269
aF10.448861989918322
aF10.01539428691854
aF9.715408959780543
aF9.684970474104613
aF9.652621853816157
aF9.507037639163986
aF9.298319035139665
aF9.2608865898118
aF9.253191909561776
aF9.176330611197127
aF9.122338882773676
aF8.849065239069038
aF8.518114033184133
aF8.033555075389147
aF7.906894681418411
aF7.798214112091844
aF7.647966596400581
aF7.606323059412987
aF7.460290880204537
aF7.420541275435648
aF7.272919992310642
aF7.228266830734407
aF7.087821354474793
aF6.692523218237651
aF6.634503587424447
aF6.55511662150279
aF6.541799944153122
aF6.505664578254456
aF6.466679201766598
aF6.4608057596966635
aF6.453814819594874
aF6.33374753113816
aF6.06848640116396
aF6.042779145464423
aF5.976291691963726
aF5.9555971880487775
aF5.788932074475743
aF5.7036287641124535
aF5.675352627552417
aF5.596395160723588
aF5.587271793848584
aF5.528468601538386
aF5.467649988033464
aF5.451084815330009
aF5.430234024477642
aF5.401394238795786
aF5.399987163195429
aF5.227171408340914
aF5.207635614195402
aF5.1717754380065255
aF5.10112886827541
aF5.079779004511655
aF5.054799376262389
aF5.016430306813459
aF1.8038101233203518
aF0.16430241218234948
aF-0.049417470770993364
aF-0.32868829979693903
aF-0.34530287059493536
aF-0.4459811146551845
aF-0.8069687105848793
aF-0.8294282200470282
aF-1.1644690773114548
aF-1.4484539293712784
aF-1.496551610085828
aF-1.7740683611305552
aF-2.183880578269597
aF-2.2122344573710206
aF-2.6932389863394155
aF-2.8283698888943154
aF-3.1279530830547633
aF-3.4144945173169905
aF-5.510911240286946
aF5.313667546564584
aF12.543454562141926
aF29.54853039634503
aF5.6741917202629875
aF5.233402713525388
aF17.650422528740695
aF-0.036832097095693496
aF309.11992103312457
aF174.55649626358868
aF91.83279223044269
aF73.35620990632535
aF60.08595594110471
aF57.6954047233536
aF48.34023341375538
aF43.69829282769383
aF43.26434802635091
aF32.43518210029991
aF27.89552570153084
aF25.76476161986362
aF23.212808713652702
aF17.19132098913477
aF16.724239538914624
aF15.641855244029436
aF14.991932457760315
aF13.922850279994009
aF13.177872855073645
aF12.905734859948106
aF11.852438237093553
aF11.699179688243527
aF7.908155971622838
aF7.109366447378668
aF6.693896823963391
aF6.398222032784005
aF5.642437229579596
aF5.338472730119
aF5.287353537305836
aF5.159081925025075
aF3.4940469906609164
aF6.097567721235506
aF6.097567721235506
aF6.437433815421923
aF5.455949483117497
as.