(dp0
S'ma'
p1
(lp2
F62.498585567049425
aF80.85417508926506
aF10.907187739820072
aF7.240144483633722
aF5.0575919629755415
aF497.23443250222016
aF32.894302914592785
aF17.883281305267197
aF223.66836359712462
aF125.49085836771488
aF16.009963086807392
aF5.4095713246814014
aF111.52224673442915
aF16.942074674159098
aF14.688525028353824
aF42.809518357920886
aF124.31747509777288
aF118.33248323661444
aF82.30775227703917
aF6.846691645387303
aF6.564078225685062
aF23.05853153117281
aF229.49502112820755
aF21.158947639824238
aF8.201931541673861
aF9.099464176967029
aF4.774591143114655
aF6.054556623961812
aF5.639092334826655
aF26.50417444190186
aF13.988545693198883
aF6.960074940085156
aF12.282410766087455
aF6.744705763052707
aF12.059948521814446
aF9.59669413031222
aF74.04589459389024
aF13.122499177799982
aF8.957772843452837
aF12.813597364769414
aF7.693841081303126
aF72.54080556404348
aF13.223900061192682
aF10.948693699421836
aF5.514259495082837
aF10.442238933890378
aF5.576910299627096
aF5.7900489339737184
aF4.143690819779112
aF7.511228448893488
aF7.067849043741683
aF17.720909936002
aF21.574091667151627
aF8.719357267043684
aF5.781473688044659
aF9.671694655354157
aF5.339536753563714
aF11.963158712869737
aF5.079418120949518
aF15.000997196718322
aF4.5992956455054035
aF4.802311634860144
aF5.3930445159211216
aF7.9968057258663645
aF6.311684481464383
aF5.3783656201959165
aF29.35303137830075
aF33.30795700393443
aF37.934785519438826
aF31.406487963861164
aF35.70941351214439
aF28.50254495746329
aF29.42960047030399
aF23.79615737409492
aF18.382855870347427
aF17.530139644143723
aF18.654271633606307
aF18.65877842664596
aF18.54548130721912
aF18.432924713646425
aF17.946605759467282
aF18.741828363403766
aF17.400169705379337
aF16.59235555542502
aF16.095191254367194
aF16.20574903315071
aF17.868536595976085
aF14.424800446843665
aF13.763346300795614
aF13.41887028414018
aF17.716294800945718
aF12.163979842699367
aF14.681276551294374
aF14.610042760343733
aF9.652624718981613
aF12.211447125121147
aF8.948202060216198
aF11.977558418838086
aF11.880965178028946
aF11.696056291614154
aF10.639907361605324
aF12.105617481047197
aF11.592807168095508
aF12.2549431630118
aF11.94331804620355
aF10.589758712165448
aF11.57930621666036
aF10.298069315707806
aF10.835887810521298
aF11.257084124680338
aF11.23705072603426
aF10.390428097430318
aF12.255767238037615
aF9.689562885078148
aF10.918721769631896
aF9.08454798007798
aF10.393142746886305
aF9.51381803801554
aF6.294370180858402
aF10.01206051731986
aF8.079590152826347
aF8.077461694636536
aF9.429516797616348
aF11.705786319670224
aF7.859517829068128
aF21.830135097972928
aF5.416659354055182
aF7.020520690279557
aF8.21027042904479
aF7.47464896642966
aF8.605622657798566
aF8.579946277129546
aF8.951884049232948
aF9.01365876318393
aF6.147279417230183
aF8.12565512137755
aF8.84561627172024
aF6.3812512064281375
aF8.41994614121816
aF8.33305742276394
aF6.172385555368062
aF8.241595201022736
aF7.88001152164091
aF6.989283658123517
aF5.398535827693725
aF6.459009037567546
aF6.8207274134026425
aF7.101508223780457
aF8.184238262798845
aF5.3116546893971535
aF6.418890983229472
aF7.4189155305863315
aF6.847240121422957
aF6.917729903091438
aF6.134848623015372
aF5.566122688282744
aF7.077901857272898
aF5.515134304531971
aF6.959746608073554
aF7.300267062857352
aF6.277620665520544
aF5.7602700097820465
aF4.449289170868642
aF5.6853125698888105
aF5.2569250552647615
aF5.1678170059283355
aF4.747865218240049
aF5.373285655177134
aF5.280052648238163
aF5.6238923670182315
aF4.100547406101887
aF6.807397286985522
aF7.651274116895546
aF0.4329322738899816
aF5.891905082582903
aF7.050390311112358
aF13.56829914506252
aF5.3592508749886045
aF4.069423046066055
aF15.531554976342573
aF14.030028678821314
aF5.666439687496469
aF7.4869753050832175
aF5.291458274505669
aF6.143741023522501
aF11.576742843396875
aF5.5501884302295865
aF9.151611414028126
aF7.558675338992256
aF5.484618409726268
aF5.2928629687627895
aF8.366194519131554
aF5.024502479546925
aF5.641345871766272
aF8.925587800321301
aF6.320408116335418
aF9.09590808640461
aF20.863420873505504
aF21.22903210411897
aF21.13385330850861
aF7.250433882675406
aF5.69814345012963
aF5.120493905183215
aF4.733608607817403
aF10.329631109313699
aF5.539139627121049
aF3.686557158182626
aF3.0381956642253445
aF5.332695632175888
aF4.824479005287562
aF5.042742521490128
aF5.1764167860275
aF5.117014275070185
aF4.768929496962801
aF4.764324232828619
aF4.801052029212118
aF7.071693875013124
aF5.7611587243352105
aF5.2939756271060645
aF6.887215289683483
aF6.913483008041459
aF8.950280356565473
aF6.953526423373032
aF22.70640088820125
aF10.122116821710039
aF20.945829794978753
aF9.93152222804935
aF8.689171766151741
aF62.294608319823844
aF26.421475566126944
aF32.777918514996315
aF72.31408344448421
aF40.67544178045197
aF29.489978127331213
aF10.427574534568343
aF12.468732779257564
aF21.74088336085932
aF7.136097874797446
aF91.69645704851223
aF26.99074555551568
aF12.813519647487686
aF9.253291569772477
aF3.180220011384147
aF15.073806489882802
aF6.867489230563228
aF5.899812668402885
aF5.078875373687238
aF10.56973666873608
aF8.656526976681748
aF7.8064939269773665
aF17.00285377993811
aF13.504126312147564
aF6.952459836922441
aF50.98611031517781
aF73.75465663441321
aF10.156127989086233
aF6.050593898946223
aF4.762258769864073
aF4.478037843469127
aF4.880998849578873
aF10.261604251044359
aF6.0541570167347025
aF8.816940527870724
aF9.787722677366485
aF6.369993749644852
aF13.876439148477418
aF46.670549444462935
aF20.63222248176271
aF7.637662856369634
aF11.053274687192776
aF13.740713367789676
aF11.570446439195033
aF8.402069304837443
aF10.082679933706752
aF9.943237482863726
aF8.767171510252945
aF4.3417478235570455
aF8.090450961095014
aF5.171862102001199
aF7.670044168616173
aF13.147943387667755
aF8.823597100358127
aF8.221701396183246
aF8.18331144952834
aF7.516484710801482
aF9.012574788884693
aF4.774591642302775
aF9.086803775927557
aF6.567887554647667
aF8.442419908620426
aF2.9723702058673913
aF6.721137950649438
aF4.794972812117268
aF6.7237421480402375
aF3.8555277997435855
aF5.768268494624107
aF5.788975553059412
aF3.9734150867239815
aF6.243210844078129
aF3.4737867937533724
aF5.156457192663461
aF5.363939874061437
aF2.0250247790222784
aF5.59190049750152
aF6.19649578762252
aF5.71320457113011
aF5.453855012305838
aF4.9129971541002435
aF6.0131484682337675
aF6.539069283765856
aF2.8890859933102973
aF5.149218729392033
aF-1.4666745502806668
aF5.357464197281969
aF4.826423983782947
aF4.917704245176185
aF5.162155722358227
aF5.445969364303819
aF5.668460038194401
aF3.238282916958936
aF2.196257559315111
aF5.755719585966991
aF7.268559792554128
aF5.497965615799072
aF5.417932412698381
aF5.429053760522826
aF5.749510883347933
aF8.406671704627772
aF6.126053537100807
aF2.877922188354512
aF5.727099385992423
aF8.298376156802151
aF53.37297968466592
aF21.11764083581461
aF7.4377289649252045
aF13.785636528040278
aF9.566580245394038
aF10.501874079157496
aF11.055390757566853
aF8.133946409437453
aF5.042700431741931
aF7.898383804198482
aF8.649263156031978
aF7.6280303895386465
aF6.9035378587623795
aF8.069423230382169
aF7.916537356569885
aF8.402107932453461
aF7.722282143686442
aF9.030647844185255
aF2.6927065102444434
aF6.244432144733553
aF5.166337740147823
aF11.150601556167524
aF3.936037057845172
aF6.319178656687753
aF6.0786254336249685
aF2.5668367779959174
aF4.938855333697932
aF5.982164675425207
aF5.130520646640454
aF6.397966853728497
aF3.57443516254347
aF5.2069777232081496
aF2.4966205079631423
aF6.141822664919392
aF3.297425465107295
aF6.961480440015768
aF5.754171838678515
aF6.171831160560428
aF5.101091282731689
aF2.842958633941316
aF5.2432901070224975
aF2.108598335756447
aF6.815591206149447
aF5.635673320812742
aF6.625203696025107
aF6.8688708410046795
aF4.913435046514224
aF3.2890887278929735
aF3.3942283642849933
aF5.7435547177612944
aF5.149224108743344
aF5.746662243931601
aF5.443583919035807
aF5.8376734325020125
aF4.595457091417994
aF3.1318589818531852
aF7.746813798833712
aF6.318918915460376
aF1.7417478470843497
aF5.9637359271694255
aF5.032706524338746
aF7.755782287013929
aF5.058745166020562
aF25.298148890967184
aF23.060072008152577
aF5.833872223579741
aF19.73016715534107
aF20.827145013076386
aF5.228529459455289
aF5.348840809713742
aF8.098887641383211
aF5.067705757633403
aF6.453750285645483
aF19.123871593821526
aF18.89243206004978
aF9.636198689391493
aF16.959235264066095
aF8.145337402030236
aF6.071233341110477
aF23.708616976446443
aF15.024379774615172
aF20.105165316489906
aF13.955682226607756
aF5.765135437178945
aF35.00062256540925
aF9.428470498680552
aF5.6744595069230295
aF466.71172337889465
aF12.800799433001258
aF5.633020737088603
aF101.53745547774857
aF17.030640395272222
aF9.602232790964084
aF8.195822979084781
aF25.324750577867924
aF34.670364232282765
aF41.65547869975246
aF18.62046415070229
aF13.270710467589128
aF31.651303116307737
aF7.8175114595356465
aF46.03018195736173
aF17.237602487553993
aF246.11941133303242
aF26.72411540452275
aF19.638125249181336
aF28.74771182657381
aF11.193641689021726
aF17.923603682498666
aF15.690666561721914
aF21.96930734521276
aF5.653280243124133
aF13.251457462857251
aF7.062789432234997
aF8.101137784188321
aF9.042200964997207
aF4.614724198125155
aF7.335164005988963
aF43.49047545632345
aF17.173689373170824
aF37.62957307437676
aF199.8877994184374
aF12.556729299169419
aF45.11836664076468
aF30.306646252095018
aF16.967301269679876
aF7.465692687921294
aF37.28716387781976
aF25.791877088492928
aF17.02549926245955
aF13.48568925446252
aF4.690462086798979
aF15.1386917375545
aF32.56682552842472
aF5.512313895236456
aF12.82645190013308
aF9.780595339607457
aF7.331819620314647
aF13.601889688019126
aF12.05865770749139
aF9.302404426079548
aF5.148951872278657
aF5.477767278580003
aF8.584321406677294
aF8.525000227575282
aF4.639532337221528
aF4.821997187214333
aF11.029807203379766
aF9.283636204327816
aF7.710649019990996
aF4.776913211536764
aF7.735934095885379
aF7.0753052551376285
aF7.818721070824647
aF5.303866055062887
aF5.737439409432994
aF6.1493954284258745
aF7.150298261688085
aF7.743506547873339
aF5.012284173309871
aF5.823460057954893
aF6.519385694184048
aF5.8246322930685315
aF11.044089888271316
aF6.2650173969974965
aF2.3088319007618807
aF5.949933280150463
aF5.166547366374607
aF5.90367185965224
aF5.249054033173572
aF5.148079296986272
aF5.298664275841778
aF5.137965865002008
aF7.01253838191679
aF4.233408486728034
aF5.094787848673429
aF5.438297665292218
aF5.280068147543477
aF5.022964082461362
aF6.505141899422548
aF5.5670826472002215
aF4.615153697578429
aF5.350766553773897
aF0.16213458008986215
aF6.087072667364816
aF5.704368271661153
aF5.732235795120622
aF16.931423008490903
aF2.280558777979933
aF5.06528392427444
aF5.718396586333312
aF6.579866330413447
aF5.068223794659586
aF5.9996864658126645
aF5.562233614349895
aF4.861936890028714
aF4.7030742114428215
aF7.642197712807909
aF6.890240223616472
aF4.9900445748103115
aF5.97670132301022
aF5.176468477239822
aF5.07327582070883
aF9.731556426538836
aF7.690475570144348
aF6.9912488031760045
aF5.636804422801455
aF6.878389630192932
aF6.015086425514531
aF7.492994241672661
aF5.737207556638662
aF5.030970882672297
aF5.325708686398057
aF6.228434238571732
aF5.034343962090486
aF5.288632116471518
aF5.469343338125077
aF7.616659102395753
aF5.642172027209778
aF5.398680808873671
aF6.40213932203948
aF13.79719333369233
aF9.471558852766307
aF9.94373506779902
aF7.0034845069294915
aF9.065311535276178
aF9.680496523018947
aF5.366235910144517
aF8.101187799329452
aF7.472848281443595
aF8.499566890331696
aF7.067256728540173
aF3.871943817352176
aF7.174639250957783
aF6.614366053727129
aF7.040594007901364
aF9.293159264966386
aF7.013758589265361
aF6.323509121388451
aF5.710651827736305
aF8.348311176792425
aF5.311957291243159
aF6.5727691388059775
aF5.653651037357763
aF5.060633064217358
aF6.275590680407423
aF6.360841134448247
aF5.663298230215174
aF5.863707589485452
aF5.391183454369145
aF5.069760021839565
aF5.182839903828851
aF5.323261685483722
aF3.963346981965688
aF6.027091394167168
aF5.080616909871996
aF4.295965192487005
aF10.880663910194674
aF5.043859396809935
aF9.015769102533113
aF7.296248440183383
aF9.075407728681196
aF5.751259133774325
aF6.518479768372054
aF19.330201376568304
aF16.126817343187238
aF13.446421325660731
aF15.733955484913785
aF8.776006777524817
aF8.108323975158621
aF13.423245936501017
aF12.780545817936163
aF13.810789866036837
aF11.086861118443947
aF11.195974112668624
aF11.870336781748698
aF8.848491851704997
aF4.857394302222889
aF11.49429204280799
aF10.13413539172899
aF10.66300022566315
aF11.189210863166263
aF9.06579908070367
aF10.491102982074917
aF10.914346791176223
aF8.249824317712745
aF8.861456306978596
aF9.59442912557058
aF8.726283272794756
aF8.835138591570546
aF6.349187661023373
aF8.679546487212365
aF8.009873492515604
aF8.214587807283415
aF6.5791508313421465
aF11.431146313108846
aF8.184230674193008
aF8.630915336621216
aF7.676362914291699
aF8.886215665253971
aF7.381128165797081
aF5.083185830427364
aF6.388017956277463
aF16.39068318143968
aF6.713911508807672
aF8.16070752512061
aF9.076403481698543
aF8.617201465883772
aF6.080322989368304
aF5.749358502873704
aF6.699801708032023
aF5.412831176969196
aF6.252884668969423
aF5.203023294948717
aF4.6284909295358485
aF8.882377335171446
aF6.21049560307935
aF1.83117644155754
aF6.088026675635196
aF7.438957937890093
aF5.980854143968653
aF7.9284037953494755
aF6.157921938800135
aF4.942905366746456
aF5.949457266893097
aF6.057750748760147
aF6.029423027130051
aF5.788343235849337
aF5.004171974083199
aF6.110414245065344
aF6.006955539247537
aF4.637274810437293
aF5.3821550439798935
aF5.5204037434156294
aF6.275116895417094
aF5.3876001709129495
aF4.543947869141825
aF5.7516206370264324
aF11.073272478203993
aF5.1585683349491225
aF5.1196397594158345
aF4.890450200743758
aF4.705085489257024
aF4.42367953603304
aF2.566216253467626
aF5.626209349719624
aF5.130247295272541
aF6.605656384461413
aF5.957223953404701
aF5.136471414705156
aF5.77232036042619
aF8.47454639621781
aF5.366827573113972
aF13.97982584800558
aF15.505757340362155
aF5.1626770626544936
aF4.7459380545357215
aF67.80606175332514
aF21.751021376440978
aF20.90244808359944
aF20.459960397260517
aF12.531394137885528
aF17.177501068017303
aF15.336542591560686
aF12.619514894342453
aF18.4220724436687
aF16.669196454068103
aF12.762840911928535
aF19.392700119966182
aF13.928640633092645
aF14.033323185256386
aF6.1061277438725545
aF13.435909141554733
aF13.365803312822877
aF12.986065903839377
aF11.945905684803519
aF12.639106241035485
aF13.386888511702594
aF11.904044283599115
aF13.232042839363437
aF13.37188012059735
aF11.402291311291206
aF11.450581099133222
aF12.545348986013716
aF9.132198031787073
aF12.376396350492785
aF10.739202575692849
aF8.312122441201938
aF12.053019927725554
aF7.58962214539229
aF12.81452339578408
aF4.808750219674303
aF9.250662866406293
aF6.804431122544081
aF8.828047687709754
aF9.35338021544577
aF8.591002155423796
aF8.776027718657787
aF8.865289928845083
aF7.646807138409928
aF8.204683995061853
aF8.605787070149555
aF7.347442026265187
aF8.729068740040121
aF8.888743399787094
aF7.0121366038597035
aF6.900923825464768
aF6.7898888214676925
aF8.155443605987179
aF8.226980900692194
aF8.311403105340666
aF6.022969734345491
aF7.853788271240108
aF7.054348648944996
aF6.020358901789094
aF5.963836445770732
aF5.583885366812926
aF6.242753934471935
aF5.7504452412402305
aF6.46188423297162
aF5.4422635903874275
aF6.379020050145808
aF5.016903036333493
aF6.317748424657737
aF6.9718673176043096
aF6.721679434703447
aF6.846880478655026
aF5.692994215811512
aF7.616693220178284
aF6.388684347337188
aF5.824028371813824
aF6.500476915064953
aF8.630901171773191
aF6.580911112927562
aF0.7343626852285201
aF-0.3127313728414725
aF4.498926553283853
aF5.940358481097862
aF5.883314905610103
aF6.454049417026676
aF5.071821457207258
aF3.8143012669487626
aF5.2462159228442085
aF5.729641124029087
aF4.917853250884055
aF5.5963011975379295
aF6.838870561369967
aF5.2769589189028405
aF5.094892967081546
aF5.831197137988432
aF5.151470138705343
aF4.650352267968206
aF5.530306535017421
aF6.525398216945997
aF6.657058879296829
aF3.1041996720629434
aF0.2383449548369071
aF4.426614362144004
aF7.732698291668871
aF4.378457263486462
aF6.8176031605437935
aF-0.6981721018945595
aF4.173868182464639
aF5.3613408874435455
aF3.587720124261641
aF5.134197974910445
aF12.159145089618251
aF4.626759135255318
aF5.014595497530372
aF4.104315234956775
aF4.76318622757766
aF7.488004623872506
aF2.6697574694784247
aF3.2245264075694315
aF5.010882408095683
aF5.234400061152403
aF7.0761854330902985
aF5.132134140709509
aF11.932076019292607
aF6.400132510195088
aF5.022077367989568
aF4.106694051304233
aF6.397755528821196
aF5.468703700947012
aF6.1542351705553076
aF38.141498375518324
aF6.884453963485666
aF6.372065258482281
aF14.145516486615822
aF4.00763113016807
aF115.31127936944294
aF37.11384027956689
aF28.326711902860236
aF26.919201219698984
aF27.63636809016961
aF18.67957569945914
aF17.765617079656092
aF25.38568420108134
aF21.388214154868862
aF26.571032098394753
aF20.724460931180726
aF19.764477881165785
aF15.39933628409255
aF20.733378847491206
aF17.99369245276252
aF19.79605179663108
aF14.148811318411848
aF18.30893264619503
aF19.565522429725704
aF19.249583321538182
aF18.217782375903834
aF17.240838933606213
aF17.592966365731172
aF17.42187333920955
aF14.646253860049105
aF13.4465601011509
aF13.137302034115308
aF13.258236677178974
aF13.424049600451873
aF11.996813243638902
aF12.633167370629506
aF13.06197261881992
aF12.295832485093696
aF10.627330332183403
aF11.552214025144716
aF10.710009181494431
aF12.047677913123787
aF12.559455850409266
aF12.642206060143288
aF12.712859734562805
aF10.313807010104638
aF9.147473422963236
aF6.185267353223429
aF7.708783056454249
aF9.598141330013537
aF9.895742578499325
aF9.540010478874985
aF9.585697697616304
aF9.90810142341535
aF10.098229056051137
aF9.822437481092429
aF0.4888896828270448
aF9.646681779473036
aF10.144159537391296
aF8.708411075272776
aF8.371735640984031
aF9.868297901391944
aF8.621795662678883
aF9.640793456137756
aF8.075090248694611
aF7.738529060777286
aF8.737019085469937
aF9.718611214278386
aF1.5998821699350556
aF7.772167683149898
aF7.656150999031437
aF6.868993329032057
aF5.041238517322657
aF5.897176446851584
aF7.378960619880535
aF4.606306425705262
aF7.317992602153231
aF7.732488104408567
aF6.789157566810089
aF6.3889315107891
aF5.991733917444347
aF7.4955074700389694
aF8.057857440713844
aF6.330020344465913
aF19.02837603785428
aF6.073425204445098
aF4.982449745276722
aF6.289641932819585
aF8.310037599947165
aF7.083815881987793
aF-1.2713071929098327
aF3.479362353932196
aF12.118690147613654
aF6.274595020528661
aF6.621272147209088
aF5.942423693396827
aF4.969062301997929
aF3.535262297565282
aF5.258139897570231
aF6.150040090947447
aF5.8232203638437126
aF0.002881979272742685
aF6.453850344070323
aF5.79760087009047
aF6.3898662643258985
aF4.249073615365827
aF5.8455679676400845
aF4.345316359074522
aF5.0647650729007685
aF4.235340848173483
aF6.812384986068585
aF9.582839554624204
aF4.274310707874312
aF9.616972469529577
aF5.078019865762083
aF6.680815868023671
aF5.015138898067503
aF9.116751276048477
aF8.209579071439519
aF8.337638532454875
aF4.897854293381647
aF9.137901919969556
aF15.537418621130547
aF6.339173753429973
aF7.658564642012642
aF3.743816774823168
aF112.14387979449772
aF30.13253522891625
aF41.92907307020418
aF35.11768927999021
aF34.06443911728645
aF33.70549774546999
aF33.487041818832786
aF32.609148522020234
aF33.71940626987879
aF32.33140883062191
aF30.901085920636014
aF32.661007481081555
aF24.443512236038558
aF31.76296568411232
aF19.571683540471987
aF32.20401745380709
aF21.20142902808329
aF21.144547657166072
aF19.5080894430938
aF21.008754532402328
aF19.122748105516077
aF20.035411398120896
aF20.05653101030153
aF20.193262951932734
aF19.612051466222642
aF20.434166705805566
aF11.11302139791306
aF20.186280515800945
aF19.248942673784057
aF31.699806611297568
aF16.67409659080714
aF15.091677435415587
aF16.164882473739766
aF14.296997375482206
aF14.221139010974802
aF15.006808777347324
aF15.367670883671304
aF14.889487632361993
aF15.213675584709096
aF15.444025058279069
aF14.870778481462867
aF15.523566035718774
aF15.0453298422166
aF13.726394016354089
aF14.94330338189868
aF15.231770913907685
aF19.54159835165917
aF8.935965447615342
aF10.823167463285657
aF8.039315945341558
aF11.475353533585553
aF10.448852518827405
aF11.617776530809527
aF10.947398398994832
aF13.180822140305054
aF11.131101491080623
aF9.560334096569973
aF6.7878626487234035
aF8.676545353528088
aF9.652621853816157
aF6.554673545802574
aF9.257431981244835
aF9.556596130766838
aF10.004875222252213
aF8.368877588685391
aF7.1471221909606815
aF9.454742316112764
aF8.033555075389147
aF9.629606062406676
aF-1.8702585730128949
aF-0.4649835293398194
aF7.053839677455209
aF5.402921609842989
aF9.13497446623972
aF3.971851900782895
aF7.138286904754602
aF6.9318134450393485
aF7.690324634350171
aF0.9830473906818854
aF7.794222216876813
aF7.536258586857178
aF2.144464606001048
aF7.1741747904301425
aF6.5843017388187945
aF5.5786915333090805
aF6.452862211685188
aF5.482177092193301
aF5.883277877061762
aF7.2074331868289505
aF6.477022210044445
aF8.367431561356009
aF4.871695717809853
aF5.002878486860105
aF7.6989606055498205
aF6.331065114990692
aF4.0172602885020385
aF5.751742982950036
aF6.503367908306485
aF4.782335003368718
aF4.2905686430847965
aF4.5579170984108535
aF10.984482476191461
aF5.72037641299699
aF4.91968214257984
aF2.582636188633293
aF4.874159424264642
aF4.93288050696579
aF5.195585658126934
aF5.401319269786504
aF4.1678062323833664
aF4.057323662400623
aF6.580806520204621
aF7.377007353785884
aF4.7523198331322325
aF6.5925394902603855
aF9.477756048979776
aF3.8017331378369046
aF1.5730030947902207
aF13.417140773924634
aF19.100099918569807
aF12.572445808112107
aF5.358293242099686
aF14.555600653106852
aF8.360078804573506
aF6.295932576030665
aF8.310408771945507
aF18.268551436053528
aF5.645978137439945
aF7.225327802595182
aF3.802501075761239
aF20.003350860485245
aF84.27885647261189
aF31.0142408576317
aF9.227313097581963
aF15.921066102977257
aF9.985869897319322
aF6.424695387754777
aF5.447530683400658
asS'wb'
p3
(lp4
F62.498585567049425
aF80.85417508926506
aF6.15382882352273
aF7.061688932988229
aF1.4222106227566935
aF0.33589467243160176
aF0.39606509915580196
aF0.3104027156505472
aF-0.011064768631888352
aF-0.18404731891547035
aF-0.03382441986826085
aF-0.08193800600486657
aF-0.2454733623765939
aF-0.2473451740954498
aF-0.2297228132395165
aF-0.34247953901894745
aF-0.3000413291472259
aF-0.34344520032416503
aF-0.4552744841278509
aF-0.4373328233217456
aF-0.3657438061271058
aF-0.4755178433394206
aF204.74883389795448
aF19.29585705562607
aF8.201931541673861
aF9.099464176967029
aF5.279775916057648
aF0.7116892854264373
aF0.4342945766470808
aF23.495228213328904
aF10.389527375189136
aF7.23001461890381
aF11.690882748896167
aF6.63719674554204
aF6.6019116268463405
aF9.355536401638997
aF65.02576278795534
aF10.359312223245457
aF8.413437001421718
aF-0.0138833794799788
aF0.07840567429394159
aF-0.07456727419616338
aF-0.1151378606793098
aF-0.17123120101606168
aF-0.012395428437785058
aF9.921361145615084
aF5.7570611397774005
aF6.635380691199374
aF5.604914020135695
aF7.511228448893488
aF7.067849043741683
aF15.714863927115298
aF21.574091667151627
aF8.719357267043684
aF5.1781814947414455
aF9.36934627877547
aF5.8316855301191834
aF11.963158712869737
aF3.3026686827781035
aF15.693649128411002
aF5.627491103311769
aF5.070048494547997
aF4.735568849185752
aF7.9968057258663645
aF6.311684481464383
aF2.919397776024061
aF-0.012502240640778805
aFnan
aF38.104491302886146
aF31.406487963861164
aF35.70941351214439
aF28.680220079779392
aF29.42960047030399
aF24.21766895244577
aF18.382855870347427
aF20.22124294984317
aF18.654271633606307
aF18.65877842664596
aF18.54548130721912
aF18.432924713646425
aF17.946605759467282
aF18.741828363403766
aF17.680353619066427
aF17.236416926128722
aF16.095191254367194
aF16.20574903315071
aF18.041022116741843
aF14.424800446843665
aF13.763346300795614
aF13.959364288941707
aF17.716294800945718
aF12.163979842699367
aF14.757164346501346
aF14.938966688437155
aF11.862456714555455
aF12.211447125121147
aF8.948202060216198
aF11.977558418838086
aF11.880965178028946
aF11.804572959013147
aF12.094056936789118
aF12.105617481047197
aF11.592807168095508
aF12.2549431630118
aF11.94331804620355
aF12.417023119719607
aF11.68428716989972
aF12.198560944695695
aF10.835887810521298
aF14.47493778481208
aF11.449687732462195
aF10.908249359275477
aF12.255767238037615
aF11.440566541348655
aF11.221136385631073
aF10.380549907215363
aF10.503403813637163
aF9.51381803801554
aF6.294370180858402
aF10.223875079565767
aF8.079590152826347
aF9.178084828594338
aF9.429516797616348
aF11.705786319670224
aF8.906171662299348
aF8.341784219175473
aF8.686580972606285
aF8.618996739843281
aF9.353943235818036
aF10.01608533525841
aF9.320383192038195
aF9.439003595360257
aF8.951884049232948
aF9.41218418757711
aF6.6929492934031245
aF8.298866120501785
aF8.84561627172024
aF8.015696151994975
aF8.41994614121816
aF8.511977646001139
aF8.744816412963699
aF8.241595201022736
aF8.092098900239746
aF6.989283658123517
aF6.020593886854493
aF8.073987850342295
aF6.8207274134026425
aF7.049495563230722
aF8.241771967710989
aF8.066743410917075
aF6.418890983229472
aF7.601111227436954
aF7.449885026237041
aF6.917729903091438
aF6.885044958990905
aF5.743740537526392
aF7.077901857272898
aF5.515134304531971
aF7.137352269335621
aF7.8308921596288465
aF6.4562885020598335
aF6.421238820736992
aF5.423548126443971
aF5.6853125698888105
aF5.2569250552647615
aF5.1678170059283355
aF5.153005006694044
aF5.79250468802918
aF6.4549072804972445
aF5.733681736680123
aF5.0963469987150285
aF6.807397286985522
aF7.756498102280933
aF5.434597440954129
aF6.914404813453016
aF7.584340876704947
aF4.099802508222068
aF5.467246535003621
aF5.481877391082102
aF3.3407545654437536
aF14.030028678821314
aF1.494711158081468
aF9.016275143530363
aF5.291458274505669
aF-0.4349483708361353
aFnan
aF0.7778471787619375
aFnan
aF10.43034337992119
aF-0.2325940230752213
aFnan
aF-0.4832488660661946
aF-1.382846648885078
aF-0.903981522670116
aF-0.8103653653364501
aF11.086235175797906
aF7.686067607818559
aF-0.12432620926178856
aF-0.013551384133317176
aF-0.008321617082624725
aFnan
aF5.939913334706032
aF5.550876976700708
aF5.1596680443355165
aF8.53450635419286
aF5.539139627121049
aF5.654045741341005
aF5.221109575636931
aF5.332695632175888
aF5.0178854592795785
aF5.492075091507228
aF5.510165595132252
aF5.4309932034911625
aF5.1138482071438505
aF5.1051177439184405
aF5.2932492340840565
aF7.071693875013124
aF5.555329487390496
aF5.133808692592892
aF7.780206684365117
aF6.461848733759147
aF9.643089844786953
aF6.149894659565356
aF11.411347216379285
aF10.022571676658488
aF11.71345973074172
aF9.90867272368477
aF5.535741289075257
aF61.34897935538237
aF25.367542619202236
aF18.294873535414293
aF71.17941884256359
aF38.940872429290174
aF15.922815167178626
aF8.730516901136694
aF10.086860810737072
aF7.7635000102629155
aF7.119038234973709
aF89.17563090543928
aF25.466922960438943
aF13.056196646727571
aF11.045330072526443
aF5.769911506498178
aF7.169307090166493
aF6.56342516800359
aF6.53529749895406
aF4.821315689034548
aF10.295209355672224
aF9.369592435944858
aF7.8064939269773665
aF17.221478531975347
aF12.331858514826374
aF7.428279404758654
aF50.45511158134923
aF73.26868930544562
aF10.156127989086233
aF6.2555118225623785
aF5.013048391308952
aF5.060944965535825
aF5.6756540871540615
aF1.8151996990803319
aF2.5159033151316508
aF10.328309620387989
aF9.541424808180087
aF6.369993749644852
aF13.770454318694286
aF45.780798154958255
aF16.243216189317778
aF6.927217236624255
aF13.280558945159148
aF13.837778208340142
aF11.570446439195033
aF11.45202600161601
aF10.082679933706752
aF9.943237482863726
aF10.162172466865439
aF8.760435554839734
aF8.892704734798652
aF7.814465576529031
aF7.921374085748716
aF13.246003758298645
aF8.823597100358127
aF9.30730017511878
aF8.18331144952834
aF7.6803813314731775
aF9.67743066863363
aF5.245960391497438
aF9.086803775927557
aF6.567887554647667
aF8.442419908620426
aF7.328419366793697
aF8.112033967787232
aF5.976032994484028
aF6.7237421480402375
aF5.972594389835535
aF5.865342664420634
aF5.788975553059412
aF6.9807442919590965
aF6.557711799546765
aF5.167658273461135
aF5.156457192663461
aF6.184164460870695
aF5.469586806700024
aF5.59190049750152
aF7.0370909694745025
aF5.809245992943696
aF5.453855012305838
aF5.754473476698205
aF6.398048229338442
aF6.539069283765856
aF5.122226191167202
aF5.149218729392033
aF5.356620757879716
aF5.5375094171895185
aF6.841355796375892
aF5.0943983967912745
aF5.162155722358227
aF5.445969364303819
aF7.11903067282791
aF5.497229648433679
aF6.124216902793735
aF6.36160762757368
aF4.353637620708153
aF2.905160988377337
aF6.488591733138491
aF1.4259966351066609
aF-1.1378806576182705
aF0.25553848856195593
aF-0.19531421071453475
aF5.1013388718944785
aF5.1380093015247335
aF7.170732027440407
aF51.79734555145178
aF15.691781554220029
aF6.810961194829103
aF13.785636528040278
aF11.796655206820825
aF10.501874079157496
aF11.152628657007833
aF11.149987770133123
aF7.696347938706489
aF8.728106106730335
aF8.649263156031978
aF9.002079461479568
aF7.155911450166219
aF8.069423230382169
aF8.981274696542899
aF8.402107932453461
aF7.722282143686442
aF9.030647844185255
aF6.583784375784704
aF6.244432144733553
aF6.3496967322432685
aF11.248832194098933
aF6.139127901467472
aF6.416409877693456
aF6.242799085309763
aF6.436178363075093
aF5.521135304347982
aF5.982164675425207
aF5.321749893860316
aF6.397966853728497
aF5.3950797723205115
aF5.362635064285144
aF6.427463760975241
aF6.4790450523972325
aF5.081062423863979
aF6.961480440015768
aF7.150819552075528
aF6.171831160560428
aF5.101091282731689
aF5.719293799832817
aF6.083615594041578
aF5.077212747587306
aF6.815591206149447
aF5.635673320812742
aF7.291708704120513
aF6.8688708410046795
aF5.727701716678182
aF5.945096760877633
aF5.025906474576941
aF5.925427810185324
aF5.245571880810924
aF6.11003002814838
aF6.283281309482572
aF7.326397446164835
aF6.557400288133692
aF5.371995355722578
aF4.747113499267794
aF7.3718349816235165
aF5.4335165519786575
aF3.2172883227045763
aF1.3551275728120038
aF0.9078484419560106
aF-0.19562393962107893
aF24.090613777401863
aF23.50418522041809
aF7.378189369378925
aF18.72481484936631
aF21.18198227757411
aF6.767346811559684
aF4.706081768879538
aF8.212757868082413
aF5.667871294939643
aF4.223850271339386
aF19.261345923852648
aF19.220295679137585
aF11.061687974427283
aF10.886464860351053
aF8.347353899487308
aF6.672355595536453
aF23.688538161227306
aF15.231191598060985
aF19.9831963443399
aF14.190522815460724
aF5.962435977150081
aF35.00062256540925
aF9.713309800784288
aF5.994284753151928
aF466.06363049804514
aF12.800799433001258
aF6.952672843066927
aF96.8385116549203
aF16.87003443324612
aF9.702923885256943
aF9.565109132685592
aF25.47416096083508
aF34.71798420610773
aF39.293747430293
aF16.95246639961539
aF12.193032066422749
aF31.91941508870761
aF8.445319772191581
aF45.32248028246504
aF17.333074532593766
aF237.65328807987615
aF28.221769852941406
aF19.50075028560413
aF26.58853488393799
aF11.60142816795283
aF17.89267435599615
aF15.814598651419082
aF21.525187044506332
aF4.927322376014468
aF12.325081045169695
aF6.213764781767639
aF9.333491543362637
aF8.686225316708109
aF5.455565799120391
aF9.00920040733081
aF43.69833337557568
aF17.571186005857726
aF36.35913138520093
aF199.4483879899836
aF11.75652246163136
aF42.78403684877693
aF28.54580630105875
aF13.841974587900665
aF8.000632891058942
aF36.46673828094892
aF24.62582000137586
aF17.138488068898198
aF13.077771387627616
aF5.748033028676804
aF13.466179623336506
aF29.110016273266588
aF5.849973082293032
aF13.863438049941669
aF9.05479709196293
aF7.444352903148563
aF13.144149968211625
aF12.269839492119775
aF8.236907483581955
aF4.478234115827078
aF3.1175049910064017
aF8.692060422757649
aF9.03084515899707
aF5.114010435153027
aF5.047300946166094
aF14.209807337034016
aF10.78953379347933
aF9.873687961395964
aF9.304965772820166
aF9.481646210772096
aF8.524511752416126
aF7.959411378278598
aF8.148637856168842
aF5.823180484995484
aF7.071192587111929
aF7.372138110124941
aF7.743506547873339
aF6.975904437469716
aF5.99489252698112
aF6.663310729169173
aF5.8246322930685315
aF11.128441340230946
aF6.2650173969974965
aF5.5760288288094975
aF6.1196461354057465
aF5.335819056344856
aF5.90367185965224
aF5.249054033173572
aF5.148079296986272
aF5.298664275841778
aF5.137965865002008
aF7.70298162472673
aF5.598932088814983
aF5.3791391536596675
aF5.438297665292218
aF5.280068147543477
aF5.022964082461362
aF6.505141899422548
aF5.5670826472002215
aF5.077963475830527
aF5.877945814923774
aF5.0992243725318485
aF6.087072667364816
aF5.704368271661153
aF5.732235795120622
aF4.059051902704171
aF5.03407781057249
aF6.15264946978837
aF2.3942593676481785
aF7.4495289228807
aF5.068223794659586
aF1.508461203105436
aF-0.18335081756049407
aF5.3867078212726005
aF5.212021186475175
aF8.34122554643168
aF6.890240223616472
aF6.371622305585354
aF5.97670132301022
aF5.274592163763752
aF4.0608291193807915
aF9.731556426538836
aF7.690475570144348
aF7.59198026964957
aF5.636804422801455
aF7.276724312821821
aF6.486932803606887
aF7.492994241672661
aF5.737207556638662
aF5.885359615290923
aF5.663674513511587
aF6.535859893208884
aF5.034343962090486
aF5.288632116471518
aF5.469343338125077
aF2.603786635058396
aF1.7535459721897702
aF5.453936251804915
aF6.453057164231177
aF13.79719333369233
aF10.294582480637514
aF9.94373506779902
aF8.386958468128228
aF9.584437981145806
aF9.680496523018947
aF6.774109620653029
aF8.170338023664156
aF8.01752727160176
aF8.499566890331696
aF7.067256728540173
aF7.704810061305089
aF7.174639250957783
aF7.04621087581321
aF7.1770797984764645
aF9.360212026889236
aF7.467633761797043
aF6.388307478158028
aF6.115034569686277
aF8.348311176792425
aF5.645557740760722
aF6.70219756425694
aF5.8932356017682945
aF5.060633064217358
aF6.343284060716871
aF6.674314342870357
aF6.422141703704362
aF5.863707589485452
aF5.391183454369145
aF5.069760021839565
aF5.182839903828851
aF6.29521695653379
aF5.19057792060913
aF6.027091394167168
aF5.080616909871996
aF5.751909906415832
aF9.36352598048708
aF5.043859396809935
aF2.3093447524921067
aF6.971990277070468
aF9.140661059463037
aF-0.9972994990274882
aF-0.5692068740250086
aF19.330201376568304
aF16.126817343187238
aF14.52064203430973
aF15.733955484913785
aF16.767394817547473
aF13.041722280756778
aF13.505149719917783
aF13.395769162915249
aF13.810789866036837
aF11.086861118443947
aF11.195974112668624
aF12.031734959457555
aF10.997689548173533
aF5.9037995656834115
aF11.89041177193141
aF11.214712613681328
aF10.66300022566315
aF11.27015803497946
aF9.582388351815569
aF10.647292693550744
aF11.180839831193484
aF10.937547057019696
aF8.861456306978596
aF9.59442912557058
aF8.726283272794756
aF9.113122990290261
aF7.271114337603317
aF8.679546487212365
aF8.009873492515604
aF8.214587807283415
aF8.414238444091376
aF11.511191876134024
aF8.263584871320674
aF8.630915336621216
aF8.129177511027068
aF8.886215665253971
aF7.381128165797081
aF7.49286632737008
aF7.313113399169572
aF16.469296978760696
aF8.034944171195303
aF8.16070752512061
aF7.168823676170546
aF8.617201465883772
aF7.450181354074968
aF6.729237596969908
aF6.699801708032023
aF7.920627239754149
aF6.252884668969423
aF7.234855159155067
aF6.044371669259218
aF8.882377335171446
aF6.21049560307935
aF6.127592093211707
aF6.088026675635196
aF7.792458070996973
aF5.980854143968653
aF7.9284037953494755
aF6.157921938800135
aF5.464398626591005
aF5.949457266893097
aF6.7813257670632625
aF6.029423027130051
aF5.788343235849337
aF6.517053530907326
aF6.110414245065344
aF6.085790070621374
aF5.892957825220554
aF5.3821550439798935
aF5.5204037434156294
aF6.275116895417094
aF5.467980863051118
aF5.030431798578082
aF5.7516206370264324
aF9.938468012602698
aF5.1585683349491225
aF5.332906972631903
aF5.097670178991219
aF5.460523059863298
aF5.225174129262522
aF6.347418347963062
aF5.701296668590876
aF2.5579815685069818
aF4.7520737939734605
aF3.3604524631202333
aF3.743508984383709
aF5.77232036042619
aF6.974700312345423
aFnan
aF-1.2952739893091554
aF-0.6448026168868181
aF5.320383430176191
aF6.041905704547287
aF69.33113924344107
aF21.751021376440978
aF20.90244808359944
aF20.459960397260517
aF17.808979886606433
aF17.361146814322034
aF16.811762487142108
aF15.601377856374235
aF18.4220724436687
aF17.425422009363437
aF17.061455172448394
aF19.768089206294167
aF13.928640633092645
aF14.033323185256386
aF12.789709854676731
aF13.435909141554733
aF13.365803312822877
aF13.26390713719272
aF12.458568693160892
aF12.734846714887905
aF13.484778297757009
aF11.904044283599115
aF13.420995112766914
aF13.37188012059735
aF12.007995531768005
aF11.777160732714648
aF12.64210839956945
aF11.886281498460331
aF12.376396350492785
aF11.552464336651614
aF12.365505212850154
aF12.053019927725554
aF10.612485226619363
aF12.910388055556519
aF13.858474859183236
aF9.250662866406293
aF8.905844814041798
aF8.828047687709754
aF9.448045521984122
aF8.591002155423796
aF8.776027718657787
aF8.865289928845083
aF8.252967704523853
aF8.204683995061853
aF8.605787070149555
aF8.106531150271662
aF9.652240230389003
aF8.888743399787094
aF8.239771702990703
aF8.382113710613304
aF8.71101210624056
aF8.155443605987179
aF8.323058791823728
aF8.311403105340666
aF6.9513081561109
aF8.108170112767201
aF8.578020876450358
aF7.255615099954302
aF6.814292881188508
aF6.395699413205067
aF6.9073216087466855
aF7.834611011854356
aF6.46188423297162
aF6.667425778354561
aF6.379020050145808
aF7.552612520653987
aF6.525481185414027
aF7.2896038711958075
aF6.721679434703447
aF6.846880478655026
aF6.6278346243021025
aF7.616693220178284
aF6.388684347337188
aF6.693088200853064
aF6.500476915064953
aF8.630901171773191
aF6.580911112927562
aF5.491355479680256
aF6.009402619081256
aF5.235558890185925
aF5.940358481097862
aF5.883314905610103
aF6.454049417026676
aF5.572473322602546
aF5.695397840799687
aF5.2462159228442085
aF5.729641124029087
aF6.26182217581638
aF5.982553116199481
aF6.838870561369967
aF5.2769589189028405
aF6.832052569677352
aF5.991427979106209
aF5.151470138705343
aF5.122930871429265
aF5.823234325227613
aF6.525398216945997
aF6.657058879296829
aF5.088990776498466
aF5.57557163120876
aF5.0118305135878165
aF7.910374723785101
aF6.736675827734648
aF6.973010487282068
aF7.0416583352402045
aF5.072368071250336
aF5.3613408874435455
aF5.038779966332593
aF5.134197974910445
aF10.538691526076226
aF5.952014210208409
aF5.391688844983372
aF5.1122540225737145
aF5.707541068998303
aF4.004343998314939
aF6.74394108598823
aF5.698063040239452
aF5.5998821538300785
aF5.326771613092631
aF7.588772070248684
aF5.132134140709509
aF12.026665651528807
aFnan
aFnan
aF6.814059284083022
aFnan
aF-0.12709576839342265
aF-0.8039432070580153
aF-1.4704183635114851
aF-1.0154705293857131
aFnan
aF-1.8213516460992476
aF5.371761478178525
aF113.50809196694544
aF37.222486115199494
aF28.326711902860236
aF26.919201219698984
aF27.63636809016961
aF22.56593994611401
aF23.91529754225769
aF25.38568420108134
aF21.388214154868862
aF27.000064873698765
aF20.724460931180726
aF20.03965360778029
aF27.751475888006567
aF20.733378847491206
aF18.769307074316078
aF19.905196055156008
aF19.602340845321315
aF18.30893264619503
aF19.565522429725704
aF20.154036571175943
aF18.217782375903834
aF17.59362305266675
aF17.70335661738331
aF17.63672537484869
aF14.949772369139463
aF13.4465601011509
aF13.137302034115308
aF13.258236677178974
aF13.424049600451873
aF12.691802873281395
aF13.266526592424905
aF13.06197261881992
aF12.295832485093696
aF13.171347112331928
aF12.117730506265024
aF12.33500391198425
aF12.047677913123787
aF12.559455850409266
aF12.750587022490857
aF12.712859734562805
aF11.302532807106246
aF12.169975022829695
aF12.193928464651256
aF8.771316022166378
aF10.512912298419016
aF9.895742578499325
aF9.540010478874985
aF9.816680492115287
aF9.90810142341535
aF10.098229056051137
aF9.822437481092429
aF9.393014802718891
aF9.646681779473036
aF10.144159537391296
aF9.031253006754714
aF8.479192040191357
aF9.868297901391944
aF8.621795662678883
aF9.640793456137756
aF9.563319345000009
aF8.23607334165251
aF9.952215809166846
aF9.718611214278386
aF8.657381990393214
aF7.772167683149898
aF7.656150999031437
aF7.072100662361017
aF7.6258700671008715
aF5.897176446851584
aF7.378960619880535
aF7.541404217820765
aF7.317992602153231
aF7.732488104408567
aF7.535399032157702
aF7.534924854505332
aF6.573929452133439
aF9.087877022061463
aF8.472464112459727
aF6.330020344465913
aF19.13573195379932
aF6.073425204445098
aF6.328615375069384
aF6.289641932819585
aF8.517147475208791
aF8.164491611675293
aF6.040161788652383
aF5.1188147880574135
aF6.208122723184
aF6.274595020528661
aF7.31396661699161
aF5.942423693396827
aF5.745467956130406
aF7.255576887262895
aF5.258139897570231
aF6.150040090947447
aF6.098874139944986
aF5.5595235570920885
aF6.453850344070323
aF5.903734225305062
aF6.3898662643258985
aF5.1227324047506535
aF5.8455679676400845
aF5.309600520053672
aF5.717494474144296
aF5.459033734691392
aF8.380456809983302
aF12.542797401118078
aF5.124109281024041
aF10.21865860872016
aF5.142361965431578
aF6.785637424558173
aF5.015138898067503
aFnan
aF-0.15121673026905208
aFnan
aF5.2053042038308
aFnan
aF-0.8942780131059818
aF-1.1508695250691463
aF-1.4159940597398946
aF5.304804758183829
aF88.03549236776566
aF40.056491841227405
aF41.92907307020418
aF35.11768927999021
aF34.06443911728645
aF33.70549774546999
aF33.487041818832786
aF32.914547417359145
aF33.71940626987879
aF32.33140883062191
aF31.61901649359894
aF32.78689637922758
aF32.487719333652755
aF31.888511991899108
aF36.80703963156022
aF32.7145054302527
aF21.20142902808329
aF21.144547657166072
aF20.231650301684336
aF21.008754532402328
aF19.730382886427115
aF20.422870997310987
aF20.05653101030153
aF20.193262951932734
aF19.94708434354904
aF20.558984182076003
aF19.61486404031601
aF20.43567518477128
aF19.248942673784057
aF31.8241119505094
aF17.704169799196436
aF19.653553794644946
aF16.164882473739766
aF16.169344410595098
aF14.577863941937899
aF15.006808777347324
aF15.367670883671304
aF15.150063512751565
aF15.213675584709096
aF15.444025058279069
aF14.870778481462867
aF15.523566035718774
aF15.0453298422166
aF13.726394016354089
aF14.94330338189868
aF15.231770913907685
aF22.630901152186475
aF12.034804571757785
aF11.076179170970931
aF11.605526157287253
aF11.475353533585553
aF11.138111056791361
aF13.014261755712571
aF11.072156831723454
aF13.644095911337054
aF11.131101491080623
aF9.560334096569973
aF11.264257777458036
aF9.754526972507538
aF9.652621853816157
aF6.554673545802574
aF10.774076854057787
aF9.556596130766838
aF10.004875222252213
aF9.662290401325595
aF7.401547804409512
aF9.454742316112764
aF8.033555075389147
aF9.629606062406676
aF7.8065765530123965
aF8.131543296354169
aF7.356795071255009
aF7.641659451040468
aF9.13497446623972
aF5.718993051850867
aF8.684344489895746
aF6.9318134450393485
aF8.481707074928124
aF7.32084235417418
aF8.068361712647647
aF7.872409704167661
aF6.907353292877383
aF7.1741747904301425
aF6.5843017388187945
aF6.329907145083134
aF6.788978588722857
aF6.282708972196997
aF5.883277877061762
aF8.282852581530173
aF6.67904023249491
aF8.448579138830928
aF5.859194069846724
aF5.127341367904196
aF7.6989606055498205
aF6.331065114990692
aF5.722382529979964
aF5.751742982950036
aF7.275774587094803
aF5.819484280454349
aF6.314913974303602
aF5.2964760957267645
aF11.643198053851096
aF5.72037641299699
aF5.299689010474399
aF6.032079735294173
aF5.611849079135945
aF5.415533119577966
aF5.525006529313378
aF6.0828755503806615
aF5.17698308415701
aF5.653643019789463
aF6.580806520204621
aF7.498781538176776
aF5.326178589605976
aF6.7184453836424485
aF10.697283210819013
aF5.035681110869893
aF5.1116900986802
aFnan
aFnan
aFnan
aF0.02434644169310335
aF-1.00081264388743
aF-0.1825901168247498
aF-1.6034054264968696
aF-1.5534327850713014
aF-1.3166514150154578
aF-0.4624231725161758
aF-4.417721030419825
aF5.109489031975503
aF18.093999692161923
aF79.77582755398149
aF37.862081137349136
aF8.551062359034416
aF16.724239538914624
aF0.4194052433269345
aF6.424695387754777
aF5.447530683400658
as.