(dp0
S'ma'
p1
(lp2
F62.498585567049425
aF80.85417508926506
aF12.263997637880793
aF7.061688932988229
aF194.37832096265325
aF19.29585705562607
aF5.3233445414339835
aF22.73161488843585
aF13.801180477289195
aF7.247259389793543
aF11.690882748896167
aF6.63719674554204
aF13.39697331670152
aF9.355536401638997
aF5.523973658379249
aF61.89001451171182
aF13.428634038139634
aF9.060722980917898
aF9.921361145615084
aF5.8561287695063635
aF7.24675299896273
aF6.668476051699095
aF7.511228448893488
aF7.067849043741683
aF14.964554489092679
aF21.574091667151627
aF8.719357267043684
aF5.1781814947414455
aF9.36934627877547
aF5.856567009777362
aF15.564527129524
aF5.334850880590406
aF5.08719830054471
aF5.6314289240251245
aF34.97365578619916
aF5.7198883465120645
aF33.30795700393443
aF38.01469887186607
aF31.550564669634994
aF20.366543783646303
aF18.654271633606307
aF16.095191254367194
aF16.20574903315071
aF13.909043943904694
aF14.424800446843665
aF13.692059376643765
aF15.11814847475837
aF12.163979842699367
aF14.757164346501346
aF11.611259808879213
aF12.211447125121147
aF12.095396779131155
aF8.948202060216198
aF11.977558418838086
aF11.880965178028946
aF12.094056936789118
aF12.105617481047197
aF12.09061706919058
aF11.592807168095508
aF12.2549431630118
aF12.417023119719607
aF12.344181336421025
aF11.68428716989972
aF10.835887810521298
aF14.47493778481208
aF11.595860251028519
aF11.730470168406294
aF10.914461281527718
aF12.255767238037615
aF11.273729455638563
aF10.380549907215363
aF10.503403813637163
aF9.51381803801554
aF10.223875079565767
aF6.294370180858402
aF8.079590152826347
aF9.178084828594338
aF10.191649770530852
aF11.851811270543115
aF9.429516797616348
aF8.906171662299348
aF6.92543265184875
aF8.557354840729468
aF8.341784219175473
aF8.586303462882189
aF9.353943235818036
aF9.320383192038195
aF9.439003595360257
aF6.404096147528786
aF8.21516337831747
aF8.84561627172024
aF7.8015110127764515
aF8.41994614121816
aF8.427784228763668
aF8.387707772554213
aF8.744816412963699
aF8.092098900239746
aF6.989283658123517
aF6.020593886854493
aF7.851133007949689
aF8.50435233943048
aF6.8207274134026425
aF8.372087160899378
aF8.241771967710989
aF6.519286576140759
aF7.505569775571733
aF7.063397995084901
aF7.030541534621485
aF7.106436210970256
aF7.223945125042992
aF5.643957445280098
aF5.515134304531971
aF6.517595463982878
aF7.0540789289316095
aF7.563219838652416
aF6.029181806970422
aF4.77096796697451
aF5.6853125698888105
aF5.2569250552647615
aF5.1678170059283355
aF5.153005006694044
aF6.368223774513615
aF5.733681736680123
aF4.402123270216059
aF6.807397286985522
aF7.902276497905537
aF3.3222112450712795
aF5.604396216587151
aF7.615979535181098
aF6.914404813453016
aF5.88570864860485
aF5.467246535003621
aF5.138996490431375
aF5.430994421829281
aF14.030028678821314
aF5.913560396526512
aF7.784149117904433
aF5.4363092880080535
aF8.820702778848498
aF7.953301836243336
aF10.871654193541303
aF7.240230632644817
aF5.153348691108754
aF5.919769885798867
aF5.484618409726268
aF5.357218344894774
aF6.676291024145139
aF10.409568350785989
aF6.762582828315124
aF6.043498790348883
aF5.3638402899181035
aF8.53450635419286
aF5.5931443146575095
aF4.497756710105621
aF5.8944060779197285
aF5.292711021133082
aF6.497558351914161
aF6.503979670943741
aF6.045636311400875
aF5.871747132051871
aF5.621221339815385
aF5.4164941376254445
aF5.361604627139131
aF6.505947433954293
aF6.255445050267117
aF4.995601021212383
aF4.987354555447576
aF6.3953511911063465
aF5.661167882692858
aF6.277702123387461
aF5.046986614946133
aF5.931704005809361
aF7.120865858161608
aF5.015420687119437
aF6.2647430290896935
aF5.133808692592892
aF7.780206684365117
aF6.461848733759147
aF9.709122462509924
aF8.374824278001205
aF11.527048170298611
aF10.217773297799713
aF11.850433971594637
aF9.777480137566661
aF5.656312295059951
aF61.362179731147975
aF28.18315515989687
aF71.33449535012822
aF43.587075687878205
aF10.310496080335096
aF10.002241793952912
aF6.921929688226527
aF88.84341411204399
aF25.465774817238874
aF13.490520538705145
aF10.272613924593463
aF5.084704341553435
aF6.56342516800359
aF6.77216454591755
aF11.813334381966314
aF9.130510816361063
aF7.897230471905531
aF5.0026976583599385
aF6.350969993431853
aF18.953996935032716
aF15.56379360949982
aF7.676776035211562
aF50.45511158134923
aF78.58281697621206
aF10.226539032324744
aF6.2555118225623785
aF6.900778244064325
aF4.945510207275738
aF5.401805469357784
aF13.942211151630993
aF9.941912735542255
aF9.57718709510423
aF6.417910203037321
aF5.708869501794308
aF15.270702605930836
aF6.383412124319289
aF47.66089152345517
aF21.446945472942268
aF9.119887793557274
aF13.837778208340142
aF11.210161080267243
aF9.943237482863726
aF9.607537253875547
aF8.458735773920901
aF8.892704734798652
aF7.741904279591532
aF13.343004977698483
aF9.218424998782783
aF9.398331873490092
aF5.245960391497438
aF6.567887554647667
aF5.310555085302844
aF5.287321283865352
aF6.974020300807925
aF4.223002395937504
aF5.156457192663461
aF4.147350051729409
aF5.754023814282979
aF5.59190049750152
aF6.790424489448958
aF5.809245992943696
aF5.453855012305838
aF6.539069283765856
aF3.962461555296672
aF5.149218729392033
aF5.5375094171895185
aF5.864495211438992
aF5.0943983967912745
aF5.162155722358227
aF5.445969364303819
aF7.217020740328139
aF4.572945605269776
aF4.652263099486602
aF5.995447128602196
aF7.444578363049851
aF8.098515311417877
aF5.894084082442571
aF6.01306331233321
aF3.8608381590512715
aF5.12327439235251
aF7.029621241518045
aF10.257970992838024
aF8.812660047978747
aF8.096694066900431
aF7.275394873853321
aF6.060654322628737
aF9.881351803525853
aF54.59327592493422
aF21.998666781673364
aF8.725373105937306
aF10.501874079157496
aF11.152628657007833
aF10.908012639843642
aF8.728106106730335
aF8.454934951651214
aF6.9756510238200855
aF8.890979826180462
aF6.2910234047887075
aF6.244432144733553
aF5.710313461918313
aF11.345954756089432
aF4.9487543926440996
aF5.425925623181207
aF5.321749893860316
aF6.397966853728497
aF4.40608957701401
aF5.284008893077561
aF6.8789505340848205
aF4.915639230442432
aF6.961480440015768
aF6.171831160560428
aF5.101091282731689
aF3.940933309940859
aF5.635673320812742
aF7.012409231209045
aF6.8688708410046795
aF5.2972610511650045
aF4.459752577127462
aF4.5867840866028615
aF5.925427810185324
aF5.245571880810924
aF6.036953446379769
aF7.424552746057199
aF5.608297240011001
aF4.457753062978269
aF7.9118365074887835
aF6.806151720771627
aF4.068478080683638
aF8.772219246918473
aF7.473802837220442
aF6.213020211239956
aF6.162796648579175
aF7.724545341574242
aF5.6306489631941
aF8.472797378257862
aF6.76895367101182
aF27.54413018534413
aF23.026760395765553
aF6.896126976515155
aF21.685638482467084
aF20.71834522633121
aF6.3402729879011845
aF6.6657174467789515
aF8.23496223245724
aF6.6120756859071115
aF19.412352022987694
aF19.15897268644855
aF11.015577174346454
aF5.0230603700481655
aF8.5579741555831
aF6.559694050647317
aF25.689615811361858
aF14.503949792737332
aF21.83020343360208
aF13.527580801291395
aF5.962435977150081
aF35.00062256540925
aF10.169463308665753
aF5.994284753151928
aF487.43173678408164
aF7.084972788860925
aF96.8029643880846
aF16.88140827732594
aF10.144676315840305
aF8.616857080081044
aF20.128324845663556
aF35.34998814077849
aF5.015339718463052
aF41.82738105495618
aF18.64559069404576
aF15.495123149698394
aF5.035586222604152
aF27.079881067749916
aF8.590460873438317
aF49.662452667719
aF18.35311956205047
aF5.169229606129663
aF237.65328807987615
aF27.835949833678203
aF20.6669979884154
aF29.39541299386098
aF12.607148332242579
aF17.20513717314152
aF15.86283736261191
aF23.34097285379505
aF7.450266474851017
aF12.01833858156084
aF6.351780544274847
aF8.53859745239583
aF9.864730825126168
aF5.12092466326225
aF8.260674081345389
aF36.711661792708114
aF17.695675974456602
aF39.03790456888054
aF198.021967661592
aF13.338246232662055
aF46.94752446666654
aF31.554418541951595
aF18.711535684619122
aF5.4258546275056645
aF8.261052731170839
aF36.47818451504668
aF26.77923755372653
aF14.037710965000686
aF14.134823468835034
aF6.281606041715545
aF15.385867378609431
aF29.24737108727684
aF6.071029155271912
aF13.70268904524282
aF9.05479709196293
aF7.6646615055358
aF13.202143171308961
aF13.08426755730465
aF10.885621286634967
aF5.345778065245085
aF6.079864149933491
aF8.782144618555206
aF9.242755787070116
aF5.703266705800876
aF5.371707319848311
aF5.169797561526303
aF14.43373248552485
aF10.871560549172608
aF9.705111645101434
aF8.664825767046286
aF6.652231448172882
aF7.071192587111929
aF6.7924868712753295
aF5.8246322930685315
aF6.347023587909121
aF6.202465930476287
aF5.561651581991825
aF5.520815730291755
aF5.5670826472002215
aF5.653880189655489
aF6.376598961793352
aF5.123060592154658
aF6.3465544063048105
aF7.685537079560202
aF5.871176171573796
aF6.960863382017702
aF6.596148819125339
aF6.566604418440474
aF7.235657380779568
aF5.3867078212726005
aF5.212021186475175
aF8.34122554643168
aF6.890240223616472
aF6.426992985646768
aF5.97670132301022
aF9.731556426538836
aF7.59198026964957
aF6.486932803606887
aF5.885359615290923
aF5.034343962090486
aF5.3689940595764565
aF5.215831985900075
aF13.79719333369233
aF10.294582480637514
aF8.386958468128228
aF6.8587908806332365
aF8.01752727160176
aF7.325063352612259
aF5.614264960127891
aF5.653651037357763
aF5.060633064217358
aF6.0504436529852335
aF5.532463397175635
aF5.182839903828851
aF6.29521695653379
aF5.277514046966211
aF5.8753350455671205
aF7.416008345283385
aF6.2856688434107
aF5.042861422524631
aF19.330201376568304
aF14.52064203430973
aF12.183132935442796
aF13.505149719917783
aF13.917877742926152
aF11.086861118443947
aF11.195974112668624
aF12.031734959457555
aF11.10338669536718
aF6.012007935636845
aF10.77032147381208
aF9.272688328045826
aF10.75576207937465
aF9.59442912557058
aF8.835138591570546
aF7.271114337603317
aF8.522453644353076
aF8.214587807283415
aF7.597116057342798
aF8.630915336621216
aF7.030111463924378
aF8.034944171195303
aF7.450181354074968
aF6.729237596969908
aF6.699801708032023
aF6.252884668969423
aF6.933580734498402
aF6.044371669259218
aF6.21049560307935
aF6.196346859984063
aF3.8268869441675215
aF5.980854143968653
aF5.2840289418314335
aF6.301643602480374
aF7.9284037953494755
aF6.157921938800135
aF5.8969243584745294
aF5.949457266893097
aF6.685049419898782
aF6.029423027130051
aF6.491838550500913
aF6.110414245065344
aF5.5991574275724565
aF5.892957825220554
aF5.5750017447448
aF5.5204037434156294
aF6.275116895417094
aF5.030431798578082
aF5.858489476965271
aF5.547545481354502
aF5.1585683349491225
aF9.938468012602698
aF5.097670178991219
aF5.460523059863298
aF5.332995047318031
aF4.492195183139737
aF5.701296668590876
aF5.118278281596156
aF7.497651326914591
aF6.135651493470068
aF5.77232036042619
aF3.860302017447775
aF6.175779132548544
aF5.902633024973806
aF5.867943253556818
aF5.535807588076385
aF6.1502452740456794
aF5.139553494156031
aF69.0581293452689
aF21.751021376440978
aF17.192427940788345
aF17.361146814322034
aF14.218824065641591
aF18.548285768347668
aF13.928640633092645
aF14.033323185256386
aF9.510870780675557
aF13.126450363321602
aF12.168857738612713
aF13.484778297757009
aF11.904044283599115
aF13.54828512884983
aF11.631415201505439
aF11.450581099133222
aF11.129011943111285
aF12.053019927725554
aF9.831301527703104
aF9.504461480840018
aF9.701819531127713
aF8.905844814041798
aF8.828047687709754
aF8.71734154278266
aF8.776027718657787
aF8.026114775337689
aF8.865289928845083
aF8.733271059926901
aF8.204683995061853
aF8.106531150271662
aF9.539426774731616
aF8.888743399787094
aF8.239771702990703
aF8.410372444804844
aF8.449145274114551
aF7.87910574385033
aF8.71101210624056
aF8.311403105340666
aF6.9513081561109
aF8.268522993077747
aF8.578020876450358
aF7.277971471872695
aF6.814292881188508
aF6.9073216087466855
aF7.47505127528228
aF6.46188423297162
aF6.667425778354561
aF7.222386546473073
aF7.246899322341852
aF6.379020050145808
aF6.397469997695584
aF6.721679434703447
aF5.446378988171572
aF6.846880478655026
aF6.6278346243021025
aF7.616693220178284
aF6.388684347337188
aF7.374607808695978
aF6.500476915064953
aF6.0635614967870834
aF8.630901171773191
aF6.580911112927562
aF3.234359388190718
aF5.235558890185925
aF6.2464924605490815
aF5.191835951572928
aF5.457427619652864
aF5.883314905610103
aF6.454049417026676
aF5.2462159228442085
aF5.729641124029087
aF5.3341503187583585
aF5.982553116199481
aF6.838870561369967
aF5.2769589189028405
aF6.15055474727445
aF5.810437066460443
aF5.917638631051672
aF5.151470138705343
aF4.840415919448398
aF3.443214778094408
aF5.104757096011778
aF6.525398216945997
aF6.657058879296829
aF4.416816749763245
aF5.1366560656073945
aF3.3585951519493937
aF4.7969074576493345
aF6.580788265714025
aF6.906809285067757
aF11.158901940667056
aF3.898369047100656
aF5.072368071250336
aF4.415276411873374
aF5.3613408874435455
aF5.261264938894869
aF8.163525010231405
aF5.833864445276638
aF7.946129747609555
aF5.247759338081335
aF4.523663612225762
aF4.849840549124079
aF4.755162345624452
aF3.835831669833517
aF5.435984184696751
aF5.326771613092631
aF7.397370175038166
aF5.132134140709509
aF5.938046398334882
aF7.875485967683601
aF7.659682332331403
aF13.638285781528433
aF38.55495714547803
aF5.449956421080984
aF19.564522889615304
aF20.831396637109552
aF15.992052963020752
aF7.030371689452619
aF5.111980098172479
aF112.89444979307207
aF37.222486115199494
aF28.326711902860236
aF26.919201219698984
aF27.63636809016961
aF20.59717004717255
aF23.730152729026234
aF25.38568420108134
aF21.388214154868862
aF26.704132009485733
aF20.724460931180726
aF27.714719272414808
aF19.874183989756066
aF20.733378847491206
aF19.203104097548486
aF19.905196055156008
aF19.486585554291864
aF18.30893264619503
aF19.565522429725704
aF19.598086563844603
aF18.217782375903834
aF17.240838933606213
aF17.70335661738331
aF17.63672537484869
aF14.790699721004028
aF13.4465601011509
aF13.137302034115308
aF13.258236677178974
aF13.424049600451873
aF12.277502911413047
aF12.881904882512147
aF13.06197261881992
aF12.295832485093696
aF13.171347112331928
aF11.79193704472906
aF12.33500391198425
aF12.047677913123787
aF12.559455850409266
aF12.750587022490857
aF12.712859734562805
aF11.302532807106246
aF11.73772508325222
aF9.050490762896654
aF8.771316022166378
aF10.07049160525832
aF9.895742578499325
aF9.540010478874985
aF9.67547474263886
aF9.90810142341535
aF10.098229056051137
aF9.822437481092429
aF5.8693547702187905
aF9.646681779473036
aF10.144159537391296
aF8.862221313178212
aF8.479192040191357
aF9.868297901391944
aF8.621795662678883
aF9.640793456137756
aF8.500513632733755
aF7.928260770362675
aF9.952215809166846
aF9.718611214278386
aF5.64911089114337
aF7.772167683149898
aF7.656150999031437
aF7.072100662361017
aF6.0446999978310885
aF6.7600665098085715
aF7.378960619880535
aF6.539937183291293
aF7.317992602153231
aF7.732488104408567
aF7.288360160830367
aF7.534924854505332
aF6.294450244227103
aF11.995052028083238
aF8.308825949136873
aF6.330020344465913
aF8.817191758867361
aF19.13573195379932
aF6.073425204445098
aF6.158931381259047
aF6.289641932819585
aF7.523424663691332
aF3.897640616794676
aF4.51359995218914
aF5.953020856598017
aF6.274595020528661
aF6.974410674405957
aF5.942423693396827
aF5.745467956130406
aF5.551807366660904
aF5.258139897570231
aF6.150040090947447
aF6.001060214844724
aF3.9847799227888463
aF6.453850344070323
aF5.903734225305062
aF6.3898662643258985
aF4.9051521988970705
aF5.8455679676400845
aF5.195310561719712
aF5.452219349194579
aF5.3154098186961285
aF7.838188322773903
aF11.26083466564573
aF5.124109281024041
aF9.992245172268529
aF5.142361965431578
aF6.785637424558173
aF5.079612026296448
aF5.015138898067503
aF5.2053042038308
aF6.397133704064766
aF11.418559574218168
aF31.91710849103496
aF73.5319229920312
aF7.125396649323616
aF10.793531798994126
aF133.8678576530604
aF39.2728035018646
aF41.92907307020418
aF35.11768927999021
aF34.06443911728645
aF33.70549774546999
aF33.487041818832786
aF32.73170050912897
aF33.71940626987879
aF32.33140883062191
aF31.992461382085985
aF32.78689637922758
aF32.35564494851421
aF31.888511991899108
aF35.5171832836091
aF32.36484484869173
aF21.20142902808329
aF21.144547657166072
aF19.822006484933013
aF21.008754532402328
aF19.36980979759884
aF20.035411398120896
aF20.05653101030153
aF20.193262951932734
aF19.76470154540201
aF20.558984182076003
aF15.210949007985286
aF20.43567518477128
aF19.248942673784057
aF31.8241119505094
aF17.216444097402505
aF19.18824709581053
aF16.164882473739766
aF16.169344410595098
aF14.382564118466616
aF15.006808777347324
aF15.367670883671304
aF14.992407069982615
aF15.213675584709096
aF15.444025058279069
aF14.870778481462867
aF15.523566035718774
aF15.0453298422166
aF13.726394016354089
aF14.94330338189868
aF15.231770913907685
aF21.233395554477493
aF11.009650865549442
aF11.076179170970931
aF10.389421843359901
aF11.475353533585553
aF10.811654026129537
aF13.014261755712571
aF11.072156831723454
aF13.457218601550634
aF11.131101491080623
aF9.560334096569973
aF9.233437350727558
aF9.754526972507538
aF9.652621853816157
aF6.554673545802574
aF9.681332426920509
aF9.556596130766838
aF10.004875222252213
aF8.986776189412042
aF7.401547804409512
aF9.454742316112764
aF8.033555075389147
aF9.629606062406676
aF4.941082604577536
aF5.911022831628162
aF7.187294249801476
aF6.692370703986086
aF9.13497446623972
aF5.118543167604915
aF8.526535964013393
aF6.9318134450393485
aF8.093282072127584
aF5.711272826782267
aF8.068361712647647
aF7.768171332407169
aF5.502809343433089
aF7.1741747904301425
aF6.5843017388187945
aF6.329907145083134
aF6.675868302132781
aF6.282708972196997
aF5.883277877061762
aF8.282852581530173
aF6.579647943495162
aF8.448579138830928
aF5.283186640341387
aF5.127341367904196
aF7.6989606055498205
aF6.331065114990692
aF5.431708709219105
aF5.751742982950036
aF7.275774587094803
aF5.690419672453223
aF5.363032723463072
aF5.1913433530294695
aF11.406980336326034
aF5.72037641299699
aF5.1716270264466635
aF4.470381334702869
aF5.47121607777035
aF5.415533119577966
aF5.424521104754613
aF5.834044078373139
aF4.71114819480831
aF4.878667069565144
aF6.580806520204621
aF7.498781538176776
aF5.008021062394159
aF6.7184453836424485
aF13.62692247224714
aF4.623062218083406
aF5.009760772823392
aF3.671306428112181
aF7.918032087308549
aF6.433043016835268
aF19.100099918569807
aF16.07176305841041
aF7.059743383310165
aF5.460671403593349
aF31.44441141775853
aF5.043231306807624
aF16.341423698038998
aF9.255133611640874
aF12.460445888095766
aF73.1442976085074
aF10.396437997157859
aF7.929438788898481
aF10.198948336015016
aF21.376710697541586
aF10.598159958856902
aF4.791413135347394
aF21.675651860067763
aF88.45806904461035
aF37.33941786106046
aF9.228962985296869
aF17.09911790727465
aF10.583826100168213
aF6.424695387754777
aF5.447530683400658
asS'wb'
p3
(lp4
F62.498585567049425
aF80.85417508926506
aF6.21281917236664
aF7.061688932988229
aF194.37832096265325
aF19.29585705562607
aF5.408979097659704
aF22.73161488843585
aF10.389527375189136
aF7.23001461890381
aF11.690882748896167
aF6.63719674554204
aF6.662013039934036
aF9.355536401638997
aF4.031706886622207
aF61.89001451171182
aF10.359312223245457
aF8.413437001421718
aF9.921361145615084
aF5.7570611397774005
aF7.674702955299969
aF6.668476051699095
aF7.511228448893488
aF7.067849043741683
aF14.964554489092679
aF21.574091667151627
aF8.719357267043684
aF5.1781814947414455
aF9.36934627877547
aF5.8316855301191834
aF15.693649128411002
aF5.627491103311769
aF5.070048494547997
aF4.735568849185752
aF-0.12856150386269807
aF-1.0500387879484179
aFnan
aF38.104491302886146
aF31.550564669634994
aF20.366543783646303
aF18.654271633606307
aF16.095191254367194
aF16.20574903315071
aF13.909043943904694
aF14.424800446843665
aF13.959364288941707
aF15.228595040761096
aF12.163979842699367
aF14.757164346501346
aF11.862456714555455
aF12.211447125121147
aF12.095396779131155
aF8.948202060216198
aF11.977558418838086
aF11.880965178028946
aF12.094056936789118
aF12.105617481047197
aF12.09061706919058
aF11.592807168095508
aF12.2549431630118
aF12.417023119719607
aF12.344181336421025
aF11.68428716989972
aF10.835887810521298
aF14.47493778481208
aF11.595860251028519
aF11.730470168406294
aF10.908249359275477
aF12.255767238037615
aF11.366746115205617
aF10.380549907215363
aF10.503403813637163
aF9.51381803801554
aF10.223875079565767
aF6.294370180858402
aF8.079590152826347
aF9.178084828594338
aF10.286679370671619
aF11.851811270543115
aF9.429516797616348
aF8.906171662299348
aF8.832942694999382
aF8.764046263277965
aF8.341784219175473
aF10.160936034192149
aF9.353943235818036
aF9.320383192038195
aF9.439003595360257
aF6.6929492934031245
aF8.298866120501785
aF8.84561627172024
aF8.015696151994975
aF8.41994614121816
aF8.511977646001139
aF8.387707772554213
aF8.744816412963699
aF8.092098900239746
aF6.989283658123517
aF6.020593886854493
aF8.073987850342295
aF8.50435233943048
aF6.8207274134026425
aF7.049495563230722
aF8.241771967710989
aF6.519286576140759
aF7.601111227436954
aF7.063397995084901
aF7.030541534621485
aF7.449885026237041
aF7.223945125042992
aF5.743740537526392
aF5.515134304531971
aF6.60251781599775
aF7.137352269335621
aF7.8308921596288465
aF6.421238820736992
aF5.423548126443971
aF5.6853125698888105
aF5.2569250552647615
aF5.1678170059283355
aF5.153005006694044
aF6.4549072804972445
aF5.733681736680123
aF5.0963469987150285
aF6.807397286985522
aF7.902276497905537
aF5.434597440954129
aF4.281433631322666
aF7.730520284898484
aF6.914404813453016
aF5.88570864860485
aF5.467246535003621
aF5.138996490431375
aF5.627827875903802
aF14.030028678821314
aF5.08422783503775
aF4.357123999394931
aF5.4363092880080535
aF-0.4327820643342872
aF-0.182981540493382
aF10.871654193541303
aF0.9228688776711298
aF-0.43673945834063377
aF-0.6102408595917461
aF-0.2325940230752213
aF-0.4635098475660291
aF-2.0829961071420717
aF7.686067607818559
aF5.939913334706032
aF3.989880747072351
aF5.550876976700708
aF8.53450635419286
aF5.5931443146575095
aF5.221109575636931
aF2.0652425608468103
aF5.492075091507228
aF3.269133738200709
aF3.999466923844183
aF4.027551683438843
aF3.775996389757912
aF3.7823656572736515
aF5.510165595132252
aF5.4309932034911625
aF3.9856209157158213
aF4.009254638670115
aF5.1138482071438505
aF5.1051177439184405
aF3.862997217604624
aF3.3818730091676428
aF3.0991273056646915
aF5.2932492340840565
aF3.5368909250650136
aF7.120865858161608
aF4.916378309334157
aF5.555329487390496
aF5.133808692592892
aF7.780206684365117
aF6.461848733759147
aF9.643089844786953
aF6.212550342871387
aF11.527048170298611
aF10.217773297799713
aF11.850433971594637
aF9.777480137566661
aF5.656312295059951
aF61.362179731147975
aF25.367542619202236
aF71.33449535012822
aF38.940872429290174
aF8.730516901136694
aF10.002241793952912
aF6.921929688226527
aF88.84341411204399
aF25.465774817238874
aF13.056196646727571
aF11.045330072526443
aF5.806732084867795
aF6.56342516800359
aF6.6445526742890415
aF10.370446578476326
aF9.369592435944858
aF7.897230471905531
aF5.0026976583599385
aF-0.1896732032475684
aF17.410062543476613
aF12.388190823898551
aF7.676776035211562
aF50.45511158134923
aF73.26868930544562
aF10.226539032324744
aF6.2555118225623785
aF5.013048391308952
aF5.067849106193316
aF5.6756540871540615
aF1.869580353934967
aF10.41753708358977
aF9.57718709510423
aF6.417910203037321
aF2.9278703242879063
aF13.770454318694286
aF4.225196025700382
aF45.83458710444273
aF16.052072776671288
aF6.927217236624255
aF13.837778208340142
aF11.45202600161601
aF9.943237482863726
aF10.162172466865439
aF8.858209266605316
aF8.892704734798652
aF7.921374085748716
aF13.343004977698483
aF9.30730017511878
aF9.67743066863363
aF5.245960391497438
aF6.567887554647667
aF5.976032994484028
aF6.9807442919590965
aF6.557711799546765
aF5.167658273461135
aF5.156457192663461
aF5.469586806700024
aF6.184164460870695
aF5.59190049750152
aF7.0370909694745025
aF5.809245992943696
aF5.453855012305838
aF6.539069283765856
aF5.122226191167202
aF5.149218729392033
aF5.5375094171895185
aF6.841355796375892
aF5.0943983967912745
aF5.162155722358227
aF5.445969364303819
aF7.217020740328139
aF5.497229648433679
aF6.124216902793735
aF6.36160762757368
aF4.353637620708153
aF2.905160988377337
aF6.488591733138491
aF-0.04922892650326412
aF5.1013388718944785
aF-0.5805361132302275
aF0.2568647747107506
aF-1.3230137091602758
aF-2.854041704088613
aF-0.6434888441634548
aF5.1380093015247335
aF3.616118968537677
aF7.170732027440407
aF51.70591151151783
aF15.794627946040325
aF6.810961194829103
aF10.501874079157496
aF11.152628657007833
aF11.149987770133123
aF8.728106106730335
aF9.002079461479568
aF7.155911450166219
aF8.981274696542899
aF6.6817259473415325
aF6.244432144733553
aF6.3496967322432685
aF11.345954756089432
aF6.436178363075093
aF5.521135304347982
aF5.321749893860316
aF6.397966853728497
aF5.3950797723205115
aF5.362635064285144
aF6.4790450523972325
aF5.081062423863979
aF6.961480440015768
aF6.171831160560428
aF5.101091282731689
aF5.077212747587306
aF5.635673320812742
aF7.291708704120513
aF6.8688708410046795
aF5.727701716678182
aF5.945096760877633
aF5.025906474576941
aF5.925427810185324
aF5.245571880810924
aF6.283281309482572
aF7.424552746057199
aF6.557400288133692
aF5.371995355722578
aF4.747113499267794
aF7.3718349816235165
aF5.4335165519786575
aF3.2172883227045763
aF-0.4942785712528752
aF0.4717857696226904
aF-0.0022933736024316194
aF-1.3241165935894512
aF-1.868872418341348
aF-2.859582790472205
aF-0.6445065774997857
aF24.090613777401863
aF23.026760395765553
aF7.472497479576306
aF18.72481484936631
aF20.71834522633121
aF6.848787373000281
aF4.706081768879538
aF8.23496223245724
aF5.723464790590628
aF19.412352022987694
aF19.15897268644855
aF11.149299685961648
aF4.234406028661125
aF8.347353899487308
aF6.672355595536453
aF23.688538161227306
aF14.503949792737332
aF19.9831963443399
aF13.527580801291395
aF5.962435977150081
aF35.00062256540925
aF9.713309800784288
aF5.994284753151928
aF466.2112239406018
aF6.952672843066927
aF96.8029643880846
aF16.88140827732594
aF9.702923885256943
aF9.580686437901738
aF20.128324845663556
aF34.72678333322537
aF4.706944708906487
aF39.2948184867036
aF16.95246639961539
aF12.228904849627767
aF4.246559618471299
aF27.079881067749916
aF8.540712058965866
aF45.32248028246504
aF17.39449820841528
aF2.7129757667556715
aF237.65328807987615
aF28.31633937596233
aF19.50075028560413
aF26.43069960581687
aF11.698444659890356
aF17.20513717314152
aF15.86283736261191
aF21.525187044506332
aF6.013681588560741
aF12.01833858156084
aF6.351780544274847
aF9.360936206802787
aF8.756622282253748
aF5.455565799120391
aF9.00920040733081
aF36.711661792708114
aF17.530331468506755
aF36.36853393616776
aF198.2102433033427
aF11.844400435614016
aF42.70142855218125
aF28.54580630105875
aF13.936552736664447
aF3.5515161616376085
aF8.000632891058942
aF36.47818451504668
aF24.62582000137586
aF14.037710965000686
aF13.139092760676082
aF5.753918475273488
aF13.521219904482324
aF29.24737108727684
aF6.071029155271912
aF14.094588553650794
aF9.05479709196293
aF7.444352903148563
aF13.202143171308961
aF12.412166529671257
aF8.231789734132226
aF4.478234115827078
aF4.98149415340782
aF8.692060422757649
aF9.03084515899707
aF5.114010435153027
aF4.867089213359332
aF5.047300946166094
aF14.43373248552485
aF10.871560549172608
aF9.705111645101434
aF8.664825767046286
aF8.148637856168842
aF7.071192587111929
aF7.057956915753684
aF5.8246322930685315
aF6.347023587909121
aF6.202465930476287
aF5.561651581991825
aF5.520815730291755
aF5.5670826472002215
aF6.103777808677889
aF6.376598961793352
aF5.123060592154658
aF3.2117727803337104
aF7.976154568671428
aF2.3942593676481785
aF0.07540362551940095
aF-0.8381439730031348
aF-0.8321121018939198
aF-0.3808449545731555
aF5.3867078212726005
aF5.212021186475175
aF8.34122554643168
aF6.890240223616472
aF6.426992985646768
aF5.97670132301022
aF9.731556426538836
aF7.59198026964957
aF6.486932803606887
aF5.885359615290923
aF5.034343962090486
aF4.489894565671379
aF-1.7567172116252543
aF13.79719333369233
aF10.294582480637514
aF8.386958468128228
aF6.8587908806332365
aF8.01752727160176
aF7.325063352612259
aF5.73044146118606
aF5.8932356017682945
aF5.060633064217358
aF6.0504436529852335
aF5.532463397175635
aF5.182839903828851
aF6.29521695653379
aF5.277514046966211
aF4.797315207694541
aF7.416008345283385
aF6.2856688434107
aF-0.2272943872025879
aF19.330201376568304
aF14.52064203430973
aF13.256297211063949
aF13.505149719917783
aF13.917877742926152
aF11.086861118443947
aF11.195974112668624
aF12.031734959457555
aF11.10338669536718
aF6.012007935636845
aF10.77032147381208
aF9.582388351815569
aF10.75576207937465
aF9.59442912557058
aF9.113122990290261
aF7.271114337603317
aF8.522453644353076
aF8.214587807283415
aF7.597116057342798
aF8.630915336621216
aF7.49286632737008
aF8.034944171195303
aF7.450181354074968
aF6.729237596969908
aF6.699801708032023
aF6.252884668969423
aF7.234855159155067
aF6.044371669259218
aF6.21049560307935
aF6.196346859984063
aF6.127592093211707
aF5.980854143968653
aF5.572600959915016
aF6.301643602480374
aF7.9284037953494755
aF6.157921938800135
aF5.8969243584745294
aF5.949457266893097
aF6.7813257670632625
aF6.029423027130051
aF6.517053530907326
aF6.110414245065344
aF5.5991574275724565
aF5.892957825220554
aF5.5750017447448
aF5.5204037434156294
aF6.275116895417094
aF5.030431798578082
aF5.858489476965271
aF5.547545481354502
aF5.1585683349491225
aF9.938468012602698
aF5.097670178991219
aF5.460523059863298
aF5.332995047318031
aF6.347418347963062
aF5.701296668590876
aF3.9448424247954046
aF7.497651326914591
aF3.8481608272722303
aF5.77232036042619
aF5.0881376275697825
aF-0.4384482993540325
aF-0.7253746100685231
aF-0.9001228679218762
aF5.535807588076385
aF6.1502452740456794
aF-1.3992514664399438
aF69.33113924344107
aF21.751021376440978
aF18.06184180964512
aF17.361146814322034
aF15.726489447643866
aF18.548285768347668
aF13.928640633092645
aF14.033323185256386
aF12.915879335810224
aF13.26390713719272
aF12.458568693160892
aF13.484778297757009
aF11.904044283599115
aF13.54828512884983
aF12.007995531768005
aF11.777160732714648
aF12.013421250335634
aF12.053019927725554
aF10.612485226619363
aF9.504461480840018
aF9.701819531127713
aF8.905844814041798
aF8.828047687709754
aF8.71734154278266
aF8.776027718657787
aF8.380095277844918
aF8.865289928845083
aF8.733271059926901
aF8.204683995061853
aF8.106531150271662
aF9.652240230389003
aF8.888743399787094
aF8.239771702990703
aF8.410372444804844
aF8.449145274114551
aF8.382113710613304
aF8.71101210624056
aF8.311403105340666
aF6.9513081561109
aF8.361254593618003
aF8.578020876450358
aF7.382763589606358
aF6.814292881188508
aF6.9073216087466855
aF7.834611011854356
aF6.46188423297162
aF6.667425778354561
aF7.678289464178713
aF7.416218078302518
aF6.379020050145808
aF6.525481185414027
aF6.721679434703447
aF5.618107427100305
aF6.846880478655026
aF6.6278346243021025
aF7.616693220178284
aF6.388684347337188
aF6.693088200853064
aF6.500476915064953
aF6.0635614967870834
aF8.630901171773191
aF6.580911112927562
aF6.009402619081256
aF5.235558890185925
aF6.651221238501046
aF5.822718793641942
aF5.699606499571298
aF5.883314905610103
aF6.454049417026676
aF5.2462159228442085
aF5.729641124029087
aF6.26182217581638
aF5.982553116199481
aF6.838870561369967
aF5.2769589189028405
aF6.832052569677352
aF5.949472633397733
aF5.991427979106209
aF5.151470138705343
aF5.122930871429265
aF5.090226076381037
aF5.104757096011778
aF6.525398216945997
aF6.657058879296829
aF5.088990776498466
aF5.1366560656073945
aF5.69770007694306
aF5.0118305135878165
aF6.736675827734648
aF6.973010487282068
aF11.158901940667056
aF7.0416583352402045
aF5.072368071250336
aF5.165194668604548
aF5.3613408874435455
aF5.261264938894869
aF8.163525010231405
aF5.833864445276638
aF5.952014210208409
aF5.391688844983372
aF5.1122540225737145
aF6.74394108598823
aF5.698063040239452
aF5.090146771519163
aF5.7240890642794175
aF5.326771613092631
aF7.588772070248684
aF5.132134140709509
aF7.067923363622517
aFnan
aF-0.6937496447847848
aF-0.8039432070580153
aF-1.4704183635114851
aF-1.1549968949176876
aF-1.4294412714084084
aF-1.9614566663787003
aF-1.5722909155926492
aF-1.2775749228333486
aF5.498980287911143
aF113.50809196694544
aF37.222486115199494
aF28.326711902860236
aF26.919201219698984
aF27.63636809016961
aF22.56593994611401
aF23.91529754225769
aF25.38568420108134
aF21.388214154868862
aF27.000064873698765
aF20.724460931180726
aF28.198915960235983
aF20.03965360778029
aF20.733378847491206
aF18.769307074316078
aF19.905196055156008
aF19.602340845321315
aF18.30893264619503
aF19.565522429725704
aF20.154036571175943
aF18.217782375903834
aF17.59362305266675
aF17.70335661738331
aF17.63672537484869
aF14.949772369139463
aF13.4465601011509
aF13.137302034115308
aF13.258236677178974
aF13.424049600451873
aF12.691802873281395
aF13.266526592424905
aF13.06197261881992
aF12.295832485093696
aF13.171347112331928
aF12.117730506265024
aF12.33500391198425
aF12.047677913123787
aF12.559455850409266
aF12.750587022490857
aF12.712859734562805
aF11.302532807106246
aF12.169975022829695
aF12.193928464651256
aF8.771316022166378
aF10.512912298419016
aF9.895742578499325
aF9.540010478874985
aF9.816680492115287
aF9.90810142341535
aF10.098229056051137
aF9.822437481092429
aF9.393014802718891
aF9.646681779473036
aF10.144159537391296
aF9.031253006754714
aF8.479192040191357
aF9.868297901391944
aF8.621795662678883
aF9.640793456137756
aF9.563319345000009
aF8.23607334165251
aF9.952215809166846
aF9.718611214278386
aF8.657381990393214
aF7.772167683149898
aF7.656150999031437
aF7.072100662361017
aF6.0446999978310885
aF7.6258700671008715
aF7.378960619880535
aF7.541404217820765
aF7.317992602153231
aF7.732488104408567
aF7.535399032157702
aF7.534924854505332
aF6.573929452133439
aF9.087877022061463
aF8.472464112459727
aF6.330020344465913
aF8.817191758867361
aF19.13573195379932
aF6.073425204445098
aF6.328615375069384
aF6.289641932819585
aF8.164491611675293
aF6.040161788652383
aF5.1188147880574135
aF6.208122723184
aF6.274595020528661
aF7.31396661699161
aF5.942423693396827
aF5.745467956130406
aF7.255576887262895
aF5.258139897570231
aF6.150040090947447
aF6.098874139944986
aF5.5595235570920885
aF6.453850344070323
aF5.903734225305062
aF6.3898662643258985
aF5.417392458579424
aF5.8455679676400845
aF5.309600520053672
aF5.717494474144296
aF5.459033734691392
aF8.380456809983302
aF12.542797401118078
aF5.124109281024041
aF10.21865860872016
aF5.142361965431578
aF6.785637424558173
aF-0.7233742180961404
aF5.015138898067503
aF5.2053042038308
aF-1.2872064426021903
aFnan
aF-0.8942780131059818
aF-1.4159940597398946
aF5.304804758183829
aF-1.401751632644234
aF88.03549236776566
aF40.056491841227405
aF41.92907307020418
aF35.11768927999021
aF34.06443911728645
aF33.70549774546999
aF33.487041818832786
aF32.914547417359145
aF33.71940626987879
aF32.33140883062191
aF31.61901649359894
aF32.78689637922758
aF32.487719333652755
aF31.888511991899108
aF36.80703963156022
aF32.7145054302527
aF21.20142902808329
aF21.144547657166072
aF20.231650301684336
aF21.008754532402328
aF19.730382886427115
aF20.422870997310987
aF20.05653101030153
aF20.193262951932734
aF19.94708434354904
aF20.558984182076003
aF19.61486404031601
aF20.43567518477128
aF19.248942673784057
aF31.8241119505094
aF17.704169799196436
aF19.653553794644946
aF16.164882473739766
aF16.169344410595098
aF14.577863941937899
aF15.006808777347324
aF15.367670883671304
aF15.150063512751565
aF15.213675584709096
aF15.444025058279069
aF14.870778481462867
aF15.523566035718774
aF15.0453298422166
aF13.726394016354089
aF14.94330338189868
aF15.231770913907685
aF22.630901152186475
aF12.034804571757785
aF11.076179170970931
aF11.605526157287253
aF11.475353533585553
aF11.138111056791361
aF13.014261755712571
aF11.072156831723454
aF13.644095911337054
aF11.131101491080623
aF9.560334096569973
aF11.264257777458036
aF9.754526972507538
aF9.652621853816157
aF6.554673545802574
aF10.774076854057787
aF9.556596130766838
aF10.004875222252213
aF9.662290401325595
aF7.401547804409512
aF9.454742316112764
aF8.033555075389147
aF9.629606062406676
aF7.8065765530123965
aF8.131543296354169
aF7.356795071255009
aF7.641659451040468
aF9.13497446623972
aF5.718993051850867
aF8.684344489895746
aF6.9318134450393485
aF8.481707074928124
aF7.32084235417418
aF8.068361712647647
aF7.872409704167661
aF6.907353292877383
aF7.1741747904301425
aF6.5843017388187945
aF6.329907145083134
aF6.788978588722857
aF6.282708972196997
aF5.883277877061762
aF8.282852581530173
aF6.67904023249491
aF8.448579138830928
aF5.859194069846724
aF5.127341367904196
aF7.6989606055498205
aF6.331065114990692
aF5.722382529979964
aF5.751742982950036
aF7.275774587094803
aF5.819484280454349
aF6.314913974303602
aF5.2964760957267645
aF11.643198053851096
aF5.72037641299699
aF5.299689010474399
aF6.032079735294173
aF5.611849079135945
aF5.415533119577966
aF5.525006529313378
aF6.0828755503806615
aF5.17698308415701
aF5.653643019789463
aF6.580806520204621
aF7.498781538176776
aF5.326178589605976
aF6.7184453836424485
aF10.697283210819013
aF5.035681110869893
aF-0.4959223299745252
aF5.1116900986802
aF-1.441463671774301
aF-0.5259276247173834
aFnan
aFnan
aF0.02434644169310335
aF-1.3000217736182142
aF-1.00081264388743
aF-0.9256397808568776
aF-1.6034054264968696
aF-1.6052959366986714
aF-1.2990846980032127
aF-1.5534327850713014
aF-1.0738799902974872
aF-2.131366158624712
aF-2.50050338067666
aF-1.3166514150154578
aF-1.5359549283761678
aF5.109489031975503
aF18.093999692161923
aF79.8278561147808
aF37.862081137349136
aF8.551062359034416
aF16.724239538914624
aF0.40107828839909454
aF6.424695387754777
aF5.447530683400658
as.